(dp0
S'METTS MARK'
p1
(dp2
S'pct_to_poi'
p3
F0.0012391573729863693
sS'to_messages'
p4
F807.0
sS'deferral_payments'
p5
F227449.0
sS'total_pay_comp'
p6
F1061827.0
sS'expenses'
p7
F94299.0
sS'pct_from_poi'
p8
F1.3103448275862069
sS'poi'
p9
I00
sS'total_stock_comp'
p10
F585062.0
sS'long_term_incentive'
p11
F422158.0
sS'from_poi_to_this_person'
p12
F38.0
sS'deferred_income'
p13
F-144062.0
sS'restricted_stock_deferred'
p14
F-153686.0
sS'shared_receipt_with_poi'
p15
F702.0
sS'loan_advances'
p16
F2000000.0
sS'from_messages'
p17
F29.0
sS'other'
p18
F1740.0
sS'director_fees'
p19
F103750.0
sS'sal_to_stock_value'
p20
F-0.46966389391474467
sS'bonus'
p21
F600000.0
sS'total_stock_value'
p22
F585062.0
sS'sal_to_bonus'
p23
F-0.494875724608843
sS'from_this_person_to_poi'
p24
F1.0
sS'restricted_stock'
p25
F585062.0
sS'salary'
p26
F365788.0
sS'total_payments'
p27
F1061827.0
sS'exercised_stock_options'
p28
F1043324.5
ssS'BAXTER JOHN C'
p29
(dp30
g3
F0.006362736718995996
sg4
F1211.0
sg5
F1295738.0
sg6
F5634343.0
sg7
F11200.0
sg8
F0.38461538461538464
sg9
I00
sg10
F10623258.0
sg11
F1586055.0
sg12
F35.0
sg13
F-1386055.0
sg14
F-153686.0
sg15
F740.5
sg16
F2000000.0
sg17
F41.0
sg18
F2660303.0
sg19
F103750.0
sg20
F-3.6831704194895343
sg21
F1200000.0
sg22
F10623258.0
sg23
F-1.5024462278559376
sg24
F8.0
sg25
F3942714.0
sg26
F267102.0
sg27
F5634343.0
sg28
F6680544.0
ssS'ELLIOTT STEVEN'
p31
(dp32
g3
F0.006362736718995996
sg4
F1211.0
sg5
F227449.0
sg6
F211725.0
sg7
F78552.0
sg8
F0.38461538461538464
sg9
I00
sg10
F6678735.0
sg11
F422158.0
sg12
F35.0
sg13
F-400729.0
sg14
F-153686.0
sg15
F740.5
sg16
F2000000.0
sg17
F41.0
sg18
F12961.0
sg19
F103750.0
sg20
F-3.665365409613595
sg21
F350000.0
sg22
F6678735.0
sg23
F-0.7166146867568487
sg24
F8.0
sg25
F1788391.0
sg26
F170941.0
sg27
F211725.0
sg28
F4890344.0
ssS'CORDES WILLIAM R'
p33
(dp34
g3
F0.0
sg4
F764.0
sg5
F227449.0
sg6
F1089742.0
sg7
F46547.5
sg8
F0.8333333333333334
sg9
I00
sg10
F1038185.0
sg11
F422158.0
sg12
F10.0
sg13
F-144062.0
sg14
F-153686.0
sg15
F58.0
sg16
F2000000.0
sg17
F12.0
sg18
F51587.0
sg19
F103750.0
sg20
F-1.788596780193325
sg21
F700000.0
sg22
F1038185.0
sg23
F-0.9802084933419314
sg24
F0.0
sg25
F386335.0
sg26
F248346.0
sg27
F1095881.5
sg28
F651850.0
ssS'HANNON KEVIN P'
p35
(dp36
g3
F0.020095693779904306
sg4
F1045.0
sg5
F227449.0
sg6
F288682.0
sg7
F34039.0
sg8
F1.0
sg9
I01
sg10
F6391065.0
sg11
F1617011.0
sg12
F32.0
sg13
F-3117011.0
sg14
F-153686.0
sg15
F1035.0
sg16
F2000000.0
sg17
F32.0
sg18
F11350.0
sg19
F103750.0
sg20
F-3.2683897218398488
sg21
F1500000.0
sg22
F6391065.0
sg23
F-1.818953908779249
sg24
F21.0
sg25
F853064.0
sg26
F243293.0
sg27
F288682.0
sg28
F5538001.0
ssS'MORDAUNT KRISTINA M'
p37
(dp38
g3
F0.006362736718995996
sg4
F1211.0
sg5
F227449.0
sg6
F628522.0
sg7
F35018.0
sg8
F0.38461538461538464
sg9
I00
sg10
F208510.0
sg11
F422158.0
sg12
F35.0
sg13
F-144062.0
sg14
F-153686.0
sg15
F740.5
sg16
F2000000.0
sg17
F41.0
sg18
F1411.0
sg19
F103750.0
sg20
F0.24760991064011162
sg21
F325000.0
sg22
F208510.0
sg23
F-0.1962282699701965
sg24
F8.0
sg25
F208510.0
sg26
F267093.0
sg27
F628522.0
sg28
F1043324.5
ssS'MEYER ROCKFORD G'
p39
(dp40
g3
F0.0
sg4
F232.0
sg5
F1848227.0
sg6
F1848227.0
sg7
F46547.5
sg8
F0.0
sg9
I00
sg10
F955873.0
sg11
F422158.0
sg12
F0.0
sg13
F-144062.0
sg14
F-153686.0
sg15
F22.0
sg16
F2000000.0
sg17
F28.0
sg18
F51587.0
sg19
F103750.0
sg20
F-1.788596780193325
sg21
F700000.0
sg22
F955873.0
sg23
F-0.9802084933419314
sg24
F0.0
sg25
F462384.0
sg26
F248346.0
sg27
F1848227.0
sg28
F493489.0
ssS'MCMAHON JEFFREY'
p41
(dp42
g3
F0.011040339702760084
sg4
F2355.0
sg5
F227449.0
sg6
F4099771.0
sg7
F137108.0
sg8
F1.2083333333333333
sg9
I00
sg10
F1662855.0
sg11
F694862.0
sg12
F58.0
sg13
F-144062.0
sg14
F-153686.0
sg15
F2228.0
sg16
F2000000.0
sg17
F48.0
sg18
F297353.0
sg19
F103750.0
sg20
F-1.5015781995606488
sg21
F2600000.0
sg22
F1662855.0
sg23
F-1.9485536400007308
sg24
F26.0
sg25
F558801.0
sg26
F370448.0
sg27
F4099771.0
sg28
F1104054.0
ssS'HORTON STANLEY C'
p43
(dp44
g3
F0.006382978723404255
sg4
F2350.0
sg5
F3131860.0
sg6
F3131860.0
sg7
F46547.5
sg8
F0.04100652376514446
sg9
I00
sg10
F7256648.0
sg11
F422158.0
sg12
F44.0
sg13
F-144062.0
sg14
F-153686.0
sg15
F1074.0
sg16
F2000000.0
sg17
F1073.0
sg18
F51587.0
sg19
F103750.0
sg20
F-1.788596780193325
sg21
F700000.0
sg22
F7256648.0
sg23
F-0.9802084933419314
sg24
F15.0
sg25
F2046079.0
sg26
F248346.0
sg27
F3131860.0
sg28
F5210569.0
ssS'PIPER GREGORY F'
p45
(dp46
g3
F0.03877221324717286
sg4
F1238.0
sg5
F1130036.0
sg6
F1737629.0
sg7
F43057.0
sg8
F0.2747747747747748
sg9
I00
sg10
F880290.0
sg11
F422158.0
sg12
F61.0
sg13
F-33333.0
sg14
F-409554.0
sg15
F742.0
sg16
F2000000.0
sg17
F222.0
sg18
F778.0
sg19
F103750.0
sg20
F-1.4965858476229486
sg21
F400000.0
sg22
F880290.0
sg23
F-0.7077989960923096
sg24
F48.0
sg25
F409554.0
sg26
F197091.0
sg27
F1737629.0
sg28
F880290.0
ssS'HUMPHREY GENE E'
p47
(dp48
g3
F0.1328125
sg4
F128.0
sg5
F2964506.0
sg6
F3100224.0
sg7
F4994.0
sg8
F0.5882352941176471
sg9
I00
sg10
F2282768.0
sg11
F422158.0
sg12
F10.0
sg13
F-144062.0
sg14
F-153686.0
sg15
F119.0
sg16
F2000000.0
sg17
F17.0
sg18
F51587.0
sg19
F103750.0
sg20
F-2.8600557902927823
sg21
F700000.0
sg22
F2282768.0
sg23
F-0.9802084933419314
sg24
F17.0
sg25
F451740.0
sg26
F130724.0
sg27
F3100224.0
sg28
F2282768.0
ssS'UMANOFF ADAM S'
p49
(dp50
g3
F0.0
sg4
F111.0
sg5
F227449.0
sg6
F1130461.0
sg7
F53122.0
sg8
F0.6666666666666666
sg9
I00
sg10
F1088014.0
sg11
F422158.0
sg12
F12.0
sg13
F-144062.0
sg14
F-153686.0
sg15
F41.0
sg16
F2000000.0
sg17
F18.0
sg18
F51587.0
sg19
F103750.0
sg20
F-1.788596780193325
sg21
F788750.0
sg22
F1102872.5
sg23
F-1.005445883280164
sg24
F0.0
sg25
F451740.0
sg26
F288589.0
sg27
F1130461.0
sg28
F1043324.5
ssS'BLACHMAN JEREMY M'
p51
(dp52
g3
F0.0008080808080808081
sg4
F2475.0
sg5
F227449.0
sg6
F2014835.0
sg7
F84208.0
sg8
F1.7857142857142858
sg9
I00
sg10
F954354.0
sg11
F831809.0
sg12
F25.0
sg13
F-144062.0
sg14
F-153686.0
sg15
F2326.0
sg16
F2000000.0
sg17
F14.0
sg18
F272.0
sg19
F103750.0
sg20
F-1.3454067327317314
sg21
F850000.0
sg22
F954354.0
sg23
F-1.2296084104145597
sg24
F2.0
sg25
F189041.0
sg26
F248546.0
sg27
F2014835.0
sg28
F765313.0
ssS'SUNDE MARTIN'
p53
(dp54
g3
F0.004911220249338874
sg4
F2647.0
sg5
F227449.0
sg6
F1545059.0
sg7
F46547.5
sg8
F0.9736842105263158
sg9
I00
sg10
F698920.0
sg11
F476451.0
sg12
F37.0
sg13
F-144062.0
sg14
F-153686.0
sg15
F2565.0
sg16
F2000000.0
sg17
F38.0
sg18
F111122.0
sg19
F103750.0
sg20
F-0.9985709367771296
sg21
F700000.0
sg22
F698920.0
sg23
F-1.0001149853496967
sg24
F13.0
sg25
F698920.0
sg26
F257486.0
sg27
F1545059.0
sg28
F1043324.5
ssS'GIBBS DANA R'
p55
(dp56
g3
F0.0
sg4
F169.0
sg5
F504610.0
sg6
F966522.0
sg7
F46547.5
sg8
F0.0
sg9
I00
sg10
F2218275.0
sg11
F461912.0
sg12
F0.0
sg13
F-144062.0
sg14
F-153686.0
sg15
F23.0
sg16
F2000000.0
sg17
F12.0
sg18
F51587.0
sg19
F103750.0
sg20
F-1.788596780193325
sg21
F700000.0
sg22
F2218275.0
sg23
F-0.9802084933419314
sg24
F0.0
sg25
F451740.0
sg26
F248346.0
sg27
F966522.0
sg28
F2218275.0
ssS'LOWRY CHARLES P'
p57
(dp58
g3
F0.006362736718995996
sg4
F1211.0
sg5
F227449.0
sg6
F1089742.0
sg7
F46547.5
sg8
F0.38461538461538464
sg9
I00
sg10
F372205.0
sg11
F422158.0
sg12
F35.0
sg13
F-144062.0
sg14
F-153686.0
sg15
F740.5
sg16
F2000000.0
sg17
F41.0
sg18
F51587.0
sg19
F103750.0
sg20
F-1.788596780193325
sg21
F700000.0
sg22
F372205.0
sg23
F-0.9802084933419314
sg24
F8.0
sg25
F153686.0
sg26
F248346.0
sg27
F1095881.5
sg28
F372205.0
ssS'COLWELL WESLEY'
p59
(dp60
g3
F0.006257110352673493
sg4
F1758.0
sg5
F27610.0
sg6
F1490344.0
sg7
F16514.0
sg8
F6.0
sg9
I01
sg10
F698242.0
sg11
F422158.0
sg12
F240.0
sg13
F-144062.0
sg14
F-153686.0
sg15
F1132.0
sg16
F2000000.0
sg17
F40.0
sg18
F101740.0
sg19
F103750.0
sg20
F-0.8837250916036037
sg21
F1200000.0
sg22
F698242.0
sg23
F-1.4252361798345083
sg24
F11.0
sg25
F698242.0
sg26
F288542.0
sg27
F1490344.0
sg28
F1043324.5
ssS'MULLER MARK S'
p61
(dp62
g3
F0.0
sg4
F136.0
sg5
F842924.0
sg6
F3202070.0
sg7
F46547.5
sg8
F0.75
sg9
I00
sg10
F1416848.0
sg11
F1725545.0
sg12
F12.0
sg13
F-719000.0
sg14
F-153686.0
sg15
F114.0
sg16
F2000000.0
sg17
F16.0
sg18
F947.0
sg19
F103750.0
sg20
F-1.7281348368706182
sg21
F1100000.0
sg22
F1416848.0
sg23
F-1.4750103305980282
sg24
F0.0
sg25
F360528.0
sg26
F251654.0
sg27
F3202070.0
sg28
F1056320.0
ssS'JACKSON CHARLENE R'
p63
(dp64
g3
F0.07364341085271318
sg4
F258.0
sg5
F227449.0
sg6
F551174.0
sg7
F10181.0
sg8
F0.44642857142857145
sg9
I00
sg10
F725735.0
sg11
F422158.0
sg12
F25.0
sg13
F-144062.0
sg14
F-153686.0
sg15
F117.0
sg16
F2000000.0
sg17
F56.0
sg18
F2435.0
sg19
F103750.0
sg20
F-0.9222888288132473
sg21
F250000.0
sg22
F725735.0
sg23
F0.14343518774145472
sg24
F19.0
sg25
F540672.0
sg26
F288558.0
sg27
F551174.0
sg28
F185063.0
ssS'WESTFAHL RICHARD K'
p65
(dp66
g3
F0.006362736718995996
sg4
F1211.0
sg5
F227449.0
sg6
F762135.0
sg7
F51870.0
sg8
F0.38461538461538464
sg9
I00
sg10
F384930.0
sg11
F256191.0
sg12
F35.0
sg13
F-10800.0
sg14
F-153686.0
sg15
F740.5
sg16
F2000000.0
sg17
F41.0
sg18
F401130.0
sg19
F103750.0
sg20
F-1.7981864376129038
sg21
F700000.0
sg22
F384930.0
sg23
F-0.9802084933419314
sg24
F8.0
sg25
F384930.0
sg26
F63744.0
sg27
F762135.0
sg28
F1043324.5
ssS'WALTERS GARETH W'
p67
(dp68
g3
F0.006362736718995996
sg4
F1211.0
sg5
F53625.0
sg6
F87410.0
sg7
F33785.0
sg8
F0.38461538461538464
sg9
I00
sg10
F1030329.0
sg11
F422158.0
sg12
F35.0
sg13
F-144062.0
sg14
F-153686.0
sg15
F740.5
sg16
F2000000.0
sg17
F41.0
sg18
F51587.0
sg19
F103750.0
sg20
F-1.788596780193325
sg21
F700000.0
sg22
F1030329.0
sg23
F-0.9802084933419314
sg24
F8.0
sg25
F451740.0
sg26
F248346.0
sg27
F87410.0
sg28
F1030329.0
ssS'WALLS JR ROBERT H'
p69
(dp70
g3
F0.0
sg4
F671.0
sg5
F227449.0
sg6
F1798780.0
sg7
F50936.0
sg8
F0.11643835616438356
sg9
I00
sg10
F5898997.0
sg11
F540751.0
sg12
F17.0
sg13
F-144062.0
sg14
F-153686.0
sg15
F215.0
sg16
F2000000.0
sg17
F146.0
sg18
F2.0
sg19
F103750.0
sg20
F-2.804546964183735
sg21
F850000.0
sg22
F5898997.0
sg23
F-0.8672456982259239
sg24
F0.0
sg25
F1552453.0
sg26
F357091.0
sg27
F1798780.0
sg28
F4346544.0
ssS'KITCHEN LOUISE'
p71
(dp72
g3
F0.023359422034918725
sg4
F8305.0
sg5
F227449.0
sg6
F3471141.0
sg7
F5774.0
sg8
F0.14525462962962962
sg9
I00
sg10
F547143.0
sg11
F422158.0
sg12
F251.0
sg13
F-144062.0
sg14
F-153686.0
sg15
F3669.0
sg16
F2000000.0
sg17
F1728.0
sg18
F93925.0
sg19
F103750.0
sg20
F-0.7009617056563033
sg21
F3100000.0
sg22
F547143.0
sg23
F-2.435408901913591
sg24
F194.0
sg25
F466101.0
sg26
F271442.0
sg27
F3471141.0
sg28
F81042.0
ssS'CHAN RONNIE'
p73
(dp74
g3
F0.006362736718995996
sg4
F1211.0
sg5
F227449.0
sg6
F0.0
sg7
F46547.5
sg8
F0.38461538461538464
sg9
I00
sg10
F0.0
sg11
F422158.0
sg12
F35.0
sg13
F-98784.0
sg14
F-32460.0
sg15
F740.5
sg16
F2000000.0
sg17
F41.0
sg18
F51587.0
sg19
F98784.0
sg20
F-1.788596780193325
sg21
F700000.0
sg22
F1102872.5
sg23
F-0.9802084933419314
sg24
F8.0
sg25
F32460.0
sg26
F248346.0
sg27
F1095881.5
sg28
F1043324.5
ssS'BELFER ROBERT'
p75
(dp76
g3
F0.006362736718995996
sg4
F1211.0
sg5
F227449.0
sg6
F3285.0
sg7
F3285.0
sg8
F0.38461538461538464
sg9
I00
sg10
F0.0
sg11
F422158.0
sg12
F35.0
sg13
F-102500.0
sg14
F44093.0
sg15
F740.5
sg16
F2000000.0
sg17
F41.0
sg18
F51587.0
sg19
F102500.0
sg20
F-1.788596780193325
sg21
F700000.0
sg22
F0.0
sg23
F-0.9802084933419314
sg24
F8.0
sg25
F-44093.0
sg26
F248346.0
sg27
F3285.0
sg28
F1043324.5
ssS'SHANKMAN JEFFREY A'
p77
(dp78
g3
F0.025768394908413535
sg4
F3221.0
sg5
F227449.0
sg6
F3038702.0
sg7
F178979.0
sg8
F0.0350615441999254
sg9
I00
sg10
F2072035.0
sg11
F554422.0
sg12
F94.0
sg13
F-144062.0
sg14
F-153686.0
sg15
F1730.0
sg16
F2000000.0
sg17
F2681.0
sg18
F1191.0
sg19
F103750.0
sg20
F-1.9188970170661812
sg21
F2000000.0
sg22
F2072035.0
sg23
F-1.8835129814796645
sg24
F83.0
sg25
F630137.0
sg26
F304110.0
sg27
F3038702.0
sg28
F1441898.0
ssS'WODRASKA JOHN'
p79
(dp80
g3
F0.006362736718995996
sg4
F1211.0
sg5
F227449.0
sg6
F189583.0
sg7
F46547.5
sg8
F0.38461538461538464
sg9
I00
sg10
F1088014.0
sg11
F422158.0
sg12
F35.0
sg13
F-144062.0
sg14
F-153686.0
sg15
F740.5
sg16
F2000000.0
sg17
F41.0
sg18
F189583.0
sg19
F103750.0
sg20
F-1.788596780193325
sg21
F700000.0
sg22
F1102872.5
sg23
F-0.9802084933419314
sg24
F8.0
sg25
F451740.0
sg26
F248346.0
sg27
F189583.0
sg28
F1043324.5
ssS'BERGSIEKER RICHARD P'
p81
(dp82
g3
F0.0
sg4
F383.0
sg5
F227449.0
sg6
F618850.0
sg7
F59175.0
sg8
F0.06779661016949153
sg9
I00
sg10
F659249.0
sg11
F180250.0
sg12
F4.0
sg13
F-485813.0
sg14
F-153686.0
sg15
F233.0
sg16
F2000000.0
sg17
F59.0
sg18
F427316.0
sg19
F103750.0
sg20
F-1.255074325236251
sg21
F250000.0
sg22
F659249.0
sg23
F-0.2854339347414887
sg24
F0.0
sg25
F659249.0
sg26
F187922.0
sg27
F618850.0
sg28
F1043324.5
ssS'URQUHART JOHN A'
p83
(dp84
g3
F0.006362736718995996
sg4
F1211.0
sg5
F227449.0
sg6
F228656.0
sg7
F228656.0
sg8
F0.38461538461538464
sg9
I00
sg10
F1088014.0
sg11
F422158.0
sg12
F35.0
sg13
F-36666.0
sg14
F-153686.0
sg15
F740.5
sg16
F2000000.0
sg17
F41.0
sg18
F51587.0
sg19
F36666.0
sg20
F-1.788596780193325
sg21
F700000.0
sg22
F1102872.5
sg23
F-0.9802084933419314
sg24
F8.0
sg25
F451740.0
sg26
F248346.0
sg27
F228656.0
sg28
F1043324.5
ssS'BIBI PHILIPPE A'
p85
(dp86
g3
F0.004978220286247666
sg4
F1607.0
sg5
F227449.0
sg6
F2047593.0
sg7
F38559.0
sg8
F0.575
sg9
I00
sg10
F1843816.0
sg11
F369721.0
sg12
F23.0
sg13
F-144062.0
sg14
F-153686.0
sg15
F1336.0
sg16
F2000000.0
sg17
F40.0
sg18
F425688.0
sg19
F103750.0
sg20
F-2.1553704746218614
sg21
F1000000.0
sg22
F1843816.0
sg23
F-1.543533137546382
sg24
F8.0
sg25
F378082.0
sg26
F213625.0
sg27
F2047593.0
sg28
F1465734.0
ssS'PIRO JIM'
p87
(dp88
g3
F0.017241379310344827
sg4
F58.0
sg5
F227449.0
sg6
F1089742.0
sg7
F46547.5
sg8
F0.0
sg9
I00
sg10
F47304.0
sg11
F422158.0
sg12
F0.0
sg13
F-144062.0
sg14
F-153686.0
sg15
F3.0
sg16
F2000000.0
sg17
F16.0
sg18
F51587.0
sg19
F103750.0
sg20
F-1.788596780193325
sg21
F700000.0
sg22
F47304.0
sg23
F-0.9802084933419314
sg24
F1.0
sg25
F47304.0
sg26
F248346.0
sg27
F1095881.5
sg28
F1043324.5
ssS'RIEKER PAULA H'
p89
(dp90
g3
F0.03614457831325301
sg4
F1328.0
sg5
F214678.0
sg6
F1099100.0
sg7
F33271.0
sg8
F0.4268292682926829
sg9
I01
sg10
F1918887.0
sg11
F422158.0
sg12
F35.0
sg13
F-100000.0
sg14
F-153686.0
sg15
F1258.0
sg16
F2000000.0
sg17
F82.0
sg18
F1950.0
sg19
F103750.0
sg20
F-2.04124080969173
sg21
F700000.0
sg22
F1918887.0
sg23
F-1.0328205352970665
sg24
F48.0
sg25
F283649.0
sg26
F249201.0
sg27
F1099100.0
sg28
F1635238.0
ssS'WHALEY DAVID A'
p91
(dp92
g3
F0.006362736718995996
sg4
F1211.0
sg5
F227449.0
sg6
F1089742.0
sg7
F46547.5
sg8
F0.38461538461538464
sg9
I00
sg10
F98718.0
sg11
F422158.0
sg12
F35.0
sg13
F-144062.0
sg14
F-153686.0
sg15
F740.5
sg16
F2000000.0
sg17
F41.0
sg18
F51587.0
sg19
F103750.0
sg20
F-1.788596780193325
sg21
F700000.0
sg22
F98718.0
sg23
F-0.9802084933419314
sg24
F8.0
sg25
F451740.0
sg26
F248346.0
sg27
F1095881.5
sg28
F98718.0
ssS'BECK SALLY W'
p93
(dp94
g3
F0.052768284347231714
sg4
F7315.0
sg5
F227449.0
sg6
F969068.0
sg7
F37172.0
sg8
F0.033156804052498275
sg9
I00
sg10
F126027.0
sg11
F422158.0
sg12
F144.0
sg13
F-144062.0
sg14
F-153686.0
sg15
F2639.0
sg16
F2000000.0
sg17
F4343.0
sg18
F566.0
sg19
F103750.0
sg20
F0.6073490928031196
sg21
F700000.0
sg22
F126027.0
sg23
F-1.1072350725304256
sg24
F386.0
sg25
F126027.0
sg26
F231330.0
sg27
F969068.0
sg28
F1043324.5
ssS'HAUG DAVID L'
p95
(dp96
g3
F0.012216404886561954
sg4
F573.0
sg5
F227449.0
sg6
F475.0
sg7
F475.0
sg8
F0.21052631578947367
sg9
I00
sg10
F2217299.0
sg11
F422158.0
sg12
F4.0
sg13
F-144062.0
sg14
F-153686.0
sg15
F471.0
sg16
F2000000.0
sg17
F19.0
sg18
F51587.0
sg19
F103750.0
sg20
F-1.788596780193325
sg21
F700000.0
sg22
F2217299.0
sg23
F-0.9802084933419314
sg24
F7.0
sg25
F2217299.0
sg26
F248346.0
sg27
F475.0
sg28
F1043324.5
ssS'ECHOLS JOHN B'
p97
(dp98
g3
F0.006362736718995996
sg4
F1211.0
sg5
F227449.0
sg6
F2692324.0
sg7
F21530.0
sg8
F0.38461538461538464
sg9
I00
sg10
F1008941.0
sg11
F2234774.0
sg12
F35.0
sg13
F-144062.0
sg14
F-153686.0
sg15
F740.5
sg16
F2000000.0
sg17
F41.0
sg18
F53775.0
sg19
F103750.0
sg20
F-1.711304609237405
sg21
F200000.0
sg22
F1008941.0
sg23
F-0.09296543087786104
sg24
F8.0
sg25
F407503.0
sg26
F182245.0
sg27
F2692324.0
sg28
F601438.0
ssS'MENDELSOHN JOHN'
p99
(dp100
g3
F0.006362736718995996
sg4
F1211.0
sg5
F227449.0
sg6
F148.0
sg7
F148.0
sg8
F0.38461538461538464
sg9
I00
sg10
F1088014.0
sg11
F422158.0
sg12
F35.0
sg13
F-103750.0
sg14
F-153686.0
sg15
F740.5
sg16
F2000000.0
sg17
F41.0
sg18
F51587.0
sg19
F103750.0
sg20
F-1.788596780193325
sg21
F700000.0
sg22
F1102872.5
sg23
F-0.9802084933419314
sg24
F8.0
sg25
F451740.0
sg26
F248346.0
sg27
F148.0
sg28
F1043324.5
ssS'HICKERSON GARY J'
p101
(dp102
g3
F0.0007575757575757576
sg4
F1320.0
sg5
F227449.0
sg6
F2081796.0
sg7
F98849.0
sg8
F1.4814814814814814
sg9
I00
sg10
F441096.0
sg11
F69223.0
sg12
F40.0
sg13
F-144062.0
sg14
F-153686.0
sg15
F900.0
sg16
F2000000.0
sg17
F27.0
sg18
F1936.0
sg19
F103750.0
sg20
F-0.7336767644928538
sg21
F1700000.0
sg22
F441096.0
sg23
F-2.0827977557058786
sg24
F1.0
sg25
F441096.0
sg26
F211788.0
sg27
F2081796.0
sg28
F1043324.5
ssS'CLINE KENNETH W'
p103
(dp104
g3
F0.006362736718995996
sg4
F1211.0
sg5
F227449.0
sg6
F1089742.0
sg7
F46547.5
sg8
F0.38461538461538464
sg9
I00
sg10
F189518.0
sg11
F422158.0
sg12
F35.0
sg13
F-144062.0
sg14
F-472568.0
sg15
F740.5
sg16
F2000000.0
sg17
F41.0
sg18
F51587.0
sg19
F103750.0
sg20
F-1.788596780193325
sg21
F700000.0
sg22
F189518.0
sg23
F-0.9802084933419314
sg24
F8.0
sg25
F662086.0
sg26
F248346.0
sg27
F1095881.5
sg28
F1043324.5
ssS'LEWIS RICHARD'
p105
(dp106
g3
F0.0
sg4
F952.0
sg5
F227449.0
sg6
F1089742.0
sg7
F46547.5
sg8
F0.38461538461538464
sg9
I00
sg10
F850477.0
sg11
F422158.0
sg12
F10.0
sg13
F-144062.0
sg14
F-153686.0
sg15
F739.0
sg16
F2000000.0
sg17
F26.0
sg18
F51587.0
sg19
F103750.0
sg20
F-1.788596780193325
sg21
F700000.0
sg22
F850477.0
sg23
F-0.9802084933419314
sg24
F0.0
sg25
F451740.0
sg26
F248346.0
sg27
F1095881.5
sg28
F850477.0
ssS'HAYES ROBERT E'
p107
(dp108
g3
F0.0
sg4
F504.0
sg5
F7961.0
sg6
F7961.0
sg7
F46547.5
sg8
F1.3333333333333333
sg9
I00
sg10
F151418.0
sg11
F422158.0
sg12
F16.0
sg13
F-144062.0
sg14
F-153686.0
sg15
F50.0
sg16
F2000000.0
sg17
F12.0
sg18
F51587.0
sg19
F103750.0
sg20
F-1.788596780193325
sg21
F700000.0
sg22
F151418.0
sg23
F-0.9802084933419314
sg24
F0.0
sg25
F151418.0
sg26
F248346.0
sg27
F7961.0
sg28
F1043324.5
ssS'KOPPER MICHAEL J'
p109
(dp110
g3
F0.006362736718995996
sg4
F1211.0
sg5
F227449.0
sg6
F2652612.0
sg7
F118134.0
sg8
F0.38461538461538464
sg9
I01
sg10
F985032.0
sg11
F602671.0
sg12
F35.0
sg13
F-144062.0
sg14
F-153686.0
sg15
F740.5
sg16
F2000000.0
sg17
F41.0
sg18
F907502.0
sg19
F103750.0
sg20
F-1.479667395102538
sg21
F800000.0
sg22
F985032.0
sg23
F-1.271604994816433
sg24
F8.0
sg25
F985032.0
sg26
F224305.0
sg27
F2652612.0
sg28
F1043324.5
ssS'LEFF DANIEL P'
p111
(dp112
g3
F0.004961020552799433
sg4
F2822.0
sg5
F227449.0
sg6
F2664228.0
sg7
F46547.5
sg8
F1.0634920634920635
sg9
I00
sg10
F360528.0
sg11
F1387399.0
sg12
F67.0
sg13
F-144062.0
sg14
F-153686.0
sg15
F2672.0
sg16
F2000000.0
sg17
F63.0
sg18
F3083.0
sg19
F103750.0
sg20
F-0.27536895445995563
sg21
F1000000.0
sg22
F360528.0
sg23
F-1.295554609830327
sg24
F14.0
sg25
F360528.0
sg26
F273746.0
sg27
F2664228.0
sg28
F1043324.5
ssS'LAVORATO JOHN J'
p113
(dp114
g3
F0.05661936905909905
sg4
F7259.0
sg5
F227449.0
sg6
F10425757.0
sg7
F49537.0
sg8
F0.20425531914893616
sg9
I00
sg10
F5167144.0
sg11
F2035380.0
sg12
F528.0
sg13
F-144062.0
sg14
F-153686.0
sg15
F3962.0
sg16
F2000000.0
sg17
F2585.0
sg18
F1552.0
sg19
F103750.0
sg20
F-2.7232260928357364
sg21
F8000000.0
sg22
F5167144.0
sg23
F-3.160347516429132
sg24
F411.0
sg25
F1008149.0
sg26
F339288.0
sg27
F10425757.0
sg28
F4158995.0
ssS'BERBERIAN DAVID'
p115
(dp116
g3
F0.006362736718995996
sg4
F1211.0
sg5
F227449.0
sg6
F228474.0
sg7
F11892.0
sg8
F0.38461538461538464
sg9
I00
sg10
F2493616.0
sg11
F422158.0
sg12
F35.0
sg13
F-144062.0
sg14
F-153686.0
sg15
F740.5
sg16
F2000000.0
sg17
F41.0
sg18
F51587.0
sg19
F103750.0
sg20
F-2.443519916237981
sg21
F700000.0
sg22
F2493616.0
sg23
F-0.9802084933419314
sg24
F8.0
sg25
F869220.0
sg26
F216582.0
sg27
F228474.0
sg28
F1624396.0
ssS'DETMERING TIMOTHY J'
p117
(dp118
g3
F0.006362736718995996
sg4
F1211.0
sg5
F875307.0
sg6
F1204583.0
sg7
F52255.0
sg8
F0.38461538461538464
sg9
I00
sg10
F2027865.0
sg11
F415657.0
sg12
F35.0
sg13
F-775241.0
sg14
F-315068.0
sg15
F740.5
sg16
F2000000.0
sg17
F41.0
sg18
F1105.0
sg19
F103750.0
sg20
F-2.2652531413255494
sg21
F425000.0
sg22
F2027865.0
sg23
F-0.7026035158019807
sg24
F8.0
sg25
F315068.0
sg26
F210500.0
sg27
F1204583.0
sg28
F2027865.0
ssS'WAKEHAM JOHN'
p119
(dp120
g3
F0.006362736718995996
sg4
F1211.0
sg5
F227449.0
sg6
F213071.0
sg7
F103773.0
sg8
F0.38461538461538464
sg9
I00
sg10
F1088014.0
sg11
F422158.0
sg12
F35.0
sg13
F-144062.0
sg14
F-153686.0
sg15
F740.5
sg16
F2000000.0
sg17
F41.0
sg18
F51587.0
sg19
F109298.0
sg20
F-1.788596780193325
sg21
F700000.0
sg22
F1102872.5
sg23
F-0.9802084933419314
sg24
F8.0
sg25
F451740.0
sg26
F248346.0
sg27
F213071.0
sg28
F1043324.5
ssS'POWERS WILLIAM'
p121
(dp122
g3
F0.0
sg4
F653.0
sg5
F227449.0
sg6
F0.0
sg7
F46547.5
sg8
F0.0
sg9
I00
sg10
F1088014.0
sg11
F422158.0
sg12
F0.0
sg13
F-17500.0
sg14
F-153686.0
sg15
F12.0
sg16
F2000000.0
sg17
F26.0
sg18
F51587.0
sg19
F17500.0
sg20
F-1.788596780193325
sg21
F700000.0
sg22
F1102872.5
sg23
F-0.9802084933419314
sg24
F0.0
sg25
F451740.0
sg26
F248346.0
sg27
F1095881.5
sg28
F1043324.5
ssS'GOLD JOSEPH'
p123
(dp124
g3
F0.006362736718995996
sg4
F1211.0
sg5
F227449.0
sg6
F2146973.0
sg7
F46547.5
sg8
F0.38461538461538464
sg9
I00
sg10
F877611.0
sg11
F304805.0
sg12
F35.0
sg13
F-144062.0
sg14
F-153686.0
sg15
F740.5
sg16
F2000000.0
sg17
F41.0
sg18
F819288.0
sg19
F103750.0
sg20
F-1.1681713049562166
sg21
F750000.0
sg22
F877611.0
sg23
F-1.0110410684199658
sg24
F8.0
sg25
F441096.0
sg26
F272880.0
sg27
F2146973.0
sg28
F436515.0
ssS'BANNANTINE JAMES M'
p125
(dp126
g3
F0.0
sg4
F566.0
sg5
F227449.0
sg6
F916197.0
sg7
F56301.0
sg8
F1.3448275862068966
sg9
I00
sg10
F5243487.0
sg11
F422158.0
sg12
F39.0
sg13
F-5104.0
sg14
F-560222.0
sg15
F465.0
sg16
F2000000.0
sg17
F29.0
sg18
F864523.0
sg19
F103750.0
sg20
F-9.304980802105145
sg21
F700000.0
sg22
F5243487.0
sg23
F-0.9802084933419314
sg24
F0.0
sg25
F1757552.0
sg26
F477.0
sg27
F916197.0
sg28
F4046157.0
ssS'DUNCAN JOHN H'
p127
(dp128
g3
F0.006362736718995996
sg4
F1211.0
sg5
F227449.0
sg6
F77492.0
sg7
F46547.5
sg8
F0.38461538461538464
sg9
I00
sg10
F371750.0
sg11
F422158.0
sg12
F35.0
sg13
F-25000.0
sg14
F-153686.0
sg15
F740.5
sg16
F2000000.0
sg17
F41.0
sg18
F51587.0
sg19
F102492.0
sg20
F-1.788596780193325
sg21
F700000.0
sg22
F371750.0
sg23
F-0.9802084933419314
sg24
F8.0
sg25
F451740.0
sg26
F248346.0
sg27
F77492.0
sg28
F371750.0
ssS'SHAPIRO RICHARD S'
p129
(dp130
g3
F0.004290712258234867
sg4
F15149.0
sg5
F227449.0
sg6
F1057548.0
sg7
F137767.0
sg8
F0.060905349794238686
sg9
I00
sg10
F987001.0
sg11
F422158.0
sg12
F74.0
sg13
F-144062.0
sg14
F-153686.0
sg15
F4527.0
sg16
F2000000.0
sg17
F1215.0
sg18
F705.0
sg19
F103750.0
sg20
F-1.2996771850248003
sg21
F650000.0
sg22
F987001.0
sg23
F-0.8819784953102888
sg24
F65.0
sg25
F379164.0
sg26
F269076.0
sg27
F1057548.0
sg28
F607837.0
ssS'SHERRIFF JOHN R'
p131
(dp132
g3
F0.0072168183244430495
sg4
F3187.0
sg5
F227449.0
sg6
F4335388.0
sg7
F46547.5
sg8
F0.30434782608695654
sg9
I00
sg10
F3128982.0
sg11
F554422.0
sg12
F28.0
sg13
F-144062.0
sg14
F-153686.0
sg15
F2103.0
sg16
F2000000.0
sg17
F92.0
sg18
F1852186.0
sg19
F103750.0
sg20
F-1.788596780193325
sg21
F700000.0
sg22
F3128982.0
sg23
F-0.9802084933419314
sg24
F23.0
sg25
F1293424.0
sg26
F248346.0
sg27
F4335388.0
sg28
F1043324.5
ssS'SHELBY REX'
p133
(dp134
g3
F0.06222222222222222
sg4
F225.0
sg5
F227449.0
sg6
F2003885.0
sg7
F22884.0
sg8
F0.3333333333333333
sg9
I01
sg10
F2493616.0
sg11
F422158.0
sg12
F13.0
sg13
F-4167.0
sg14
F-153686.0
sg15
F91.0
sg16
F2000000.0
sg17
F39.0
sg18
F1573324.0
sg19
F103750.0
sg20
F-2.465638990112989
sg21
F200000.0
sg22
F2493616.0
sg23
F0.05753278819756732
sg24
F14.0
sg25
F869220.0
sg26
F211844.0
sg27
F2003885.0
sg28
F1624396.0
ssS'LEMAISTRE CHARLES'
p135
(dp136
g3
F0.006362736718995996
sg4
F1211.0
sg5
F227449.0
sg6
F87492.0
sg7
F46547.5
sg8
F0.38461538461538464
sg9
I00
sg10
F412878.0
sg11
F422158.0
sg12
F35.0
sg13
F-25000.0
sg14
F-153686.0
sg15
F740.5
sg16
F2000000.0
sg17
F41.0
sg18
F51587.0
sg19
F112492.0
sg20
F-1.788596780193325
sg21
F700000.0
sg22
F412878.0
sg23
F-0.9802084933419314
sg24
F8.0
sg25
F451740.0
sg26
F248346.0
sg27
F87492.0
sg28
F412878.0
ssS'DEFFNER JOSEPH M'
p137
(dp138
g3
F0.0056022408963585435
sg4
F714.0
sg5
F227449.0
sg6
F1208649.0
sg7
F41626.0
sg8
F1.554054054054054
sg9
I00
sg10
F159211.0
sg11
F335349.0
sg12
F115.0
sg13
F-144062.0
sg14
F-153686.0
sg15
F552.0
sg16
F2000000.0
sg17
F74.0
sg18
F25553.0
sg19
F103750.0
sg20
F0.2582330084903584
sg21
F600000.0
sg22
F159211.0
sg23
F-1.068466280225101
sg24
F4.0
sg25
F141833.0
sg26
F206121.0
sg27
F1208649.0
sg28
F17378.0
ssS'KISHKILL JOSEPH G'
p139
(dp140
g3
F0.006362736718995996
sg4
F1211.0
sg5
F227449.0
sg6
F704896.0
sg7
F116335.0
sg8
F0.38461538461538464
sg9
I00
sg10
F1034346.0
sg11
F422158.0
sg12
F35.0
sg13
F-51042.0
sg14
F-153686.0
sg15
F740.5
sg16
F2000000.0
sg17
F41.0
sg18
F465357.0
sg19
F103750.0
sg20
F-1.7810565280651498
sg21
F700000.0
sg22
F1034346.0
sg23
F-0.9802084933419314
sg24
F8.0
sg25
F1034346.0
sg26
F174246.0
sg27
F704896.0
sg28
F1043324.5
ssS'WHALLEY LAWRENCE G'
p141
(dp142
g3
F0.003987373317826882
sg4
F6019.0
sg5
F227449.0
sg6
F4677574.0
sg7
F57838.0
sg8
F0.3345323741007194
sg9
I00
sg10
F6079137.0
sg11
F808346.0
sg12
F186.0
sg13
F-144062.0
sg14
F-153686.0
sg15
F3920.0
sg16
F2000000.0
sg17
F556.0
sg18
F301026.0
sg19
F103750.0
sg20
F-1.788596780193325
sg21
F700000.0
sg22
F6079137.0
sg23
F-0.9802084933419314
sg24
F24.0
sg25
F2796177.0
sg26
F248346.0
sg27
F4677574.0
sg28
F1043324.5
ssS'MCCARTY DANNY J'
p143
(dp144
g3
F0.0013956734124214933
sg4
F1433.0
sg5
F227449.0
sg6
F1089742.0
sg7
F46547.5
sg8
F0.11627906976744186
sg9
I00
sg10
F758931.0
sg11
F422158.0
sg12
F25.0
sg13
F-144062.0
sg14
F-153686.0
sg15
F508.0
sg16
F2000000.0
sg17
F215.0
sg18
F51587.0
sg19
F103750.0
sg20
F-1.788596780193325
sg21
F700000.0
sg22
F758931.0
sg23
F-0.9802084933419314
sg24
F2.0
sg25
F94556.0
sg26
F248346.0
sg27
F1095881.5
sg28
F664375.0
ssS'MCCONNELL MICHAEL S'
p145
(dp146
g3
F0.058275758486031844
sg4
F3329.0
sg5
F227449.0
sg6
F2101364.0
sg7
F81364.0
sg8
F0.03355215171407731
sg9
I00
sg10
F3101279.0
sg11
F554422.0
sg12
F92.0
sg13
F-144062.0
sg14
F-153686.0
sg15
F2189.0
sg16
F2000000.0
sg17
F2742.0
sg18
F540.0
sg19
F103750.0
sg20
F-2.139568428277902
sg21
F1100000.0
sg22
F3101279.0
sg23
F-1.1030640010339563
sg24
F194.0
sg25
F1478269.0
sg26
F365038.0
sg27
F2101364.0
sg28
F1623010.0
ssS'DELAINEY DAVID W'
p147
(dp148
g3
F0.19689621726479145
sg4
F3093.0
sg5
F227449.0
sg6
F4747979.0
sg7
F86174.0
sg8
F0.021505376344086023
sg9
I01
sg10
F3614261.0
sg11
F1294981.0
sg12
F66.0
sg13
F-144062.0
sg14
F-153686.0
sg15
F2097.0
sg16
F2000000.0
sg17
F3069.0
sg18
F1661.0
sg19
F103750.0
sg20
F-2.29229885845239
sg21
F3000000.0
sg22
F3614261.0
sg23
F-2.106023738410381
sg24
F609.0
sg25
F1323148.0
sg26
F365163.0
sg27
F4747979.0
sg28
F2291113.0
ssS'SULLIVAN-SHAKLOVITZ COLLEEN'
p149
(dp150
g3
F0.006362736718995996
sg4
F1211.0
sg5
F181993.0
sg6
F999356.0
sg7
F46547.5
sg8
F0.38461538461538464
sg9
I00
sg10
F1362375.0
sg11
F554422.0
sg12
F35.0
sg13
F-144062.0
sg14
F-153686.0
sg15
F740.5
sg16
F2000000.0
sg17
F41.0
sg18
F162.0
sg19
F103750.0
sg20
F-2.124591326590293
sg21
F100000.0
sg22
F1362375.0
sg23
F0.4872232666310913
sg24
F8.0
sg25
F451740.0
sg26
F162779.0
sg27
F999356.0
sg28
F1362375.0
ssS'WROBEL BRUCE'
p151
(dp152
g3
F0.006362736718995996
sg4
F1211.0
sg5
F227449.0
sg6
F1089742.0
sg7
F46547.5
sg8
F0.38461538461538464
sg9
I00
sg10
F139130.0
sg11
F422158.0
sg12
F35.0
sg13
F-144062.0
sg14
F-153686.0
sg15
F740.5
sg16
F2000000.0
sg17
F41.0
sg18
F51587.0
sg19
F103750.0
sg20
F-1.788596780193325
sg21
F700000.0
sg22
F139130.0
sg23
F-0.9802084933419314
sg24
F8.0
sg25
F451740.0
sg26
F248346.0
sg27
F1095881.5
sg28
F139130.0
ssS'LINDHOLM TOD A'
p153
(dp154
g3
F0.006362736718995996
sg4
F1211.0
sg5
F204075.0
sg6
F875889.0
sg7
F57727.0
sg8
F0.38461538461538464
sg9
I00
sg10
F3064208.0
sg11
F175000.0
sg12
F35.0
sg13
F-144062.0
sg14
F-153686.0
sg15
F740.5
sg16
F2000000.0
sg17
F41.0
sg18
F2630.0
sg19
F103750.0
sg20
F-2.561778040454645
sg21
F200000.0
sg22
F3064208.0
sg23
F0.1674490066712034
sg24
F8.0
sg25
F514847.0
sg26
F236457.0
sg27
F875889.0
sg28
F2549361.0
ssS'MEYER JEROME J'
p155
(dp156
g3
F0.006362736718995996
sg4
F1211.0
sg5
F227449.0
sg6
F2151.0
sg7
F2151.0
sg8
F0.38461538461538464
sg9
I00
sg10
F1088014.0
sg11
F422158.0
sg12
F35.0
sg13
F-38346.0
sg14
F-153686.0
sg15
F740.5
sg16
F2000000.0
sg17
F41.0
sg18
F51587.0
sg19
F38346.0
sg20
F-1.788596780193325
sg21
F700000.0
sg22
F1102872.5
sg23
F-0.9802084933419314
sg24
F8.0
sg25
F451740.0
sg26
F248346.0
sg27
F2151.0
sg28
F1043324.5
ssS'LAY KENNETH L'
p157
(dp158
g3
F0.003744441844137608
sg4
F4273.0
sg5
F202911.0
sg6
F103559793.0
sg7
F99832.0
sg8
F3.4166666666666665
sg9
I01
sg10
F49110078.0
sg11
F3600000.0
sg12
F123.0
sg13
F-300000.0
sg14
F-153686.0
sg15
F2411.0
sg16
F81525000.0
sg17
F36.0
sg18
F10359729.0
sg19
F103750.0
sg20
F-1.788596780193325
sg21
F700000.0
sg22
F49110078.0
sg23
F-0.9802084933419314
sg24
F16.0
sg25
F14761694.0
sg26
F248346.0
sg27
F103559793.0
sg28
F1043324.5
ssS'BUTTS ROBERT H'
p159
(dp160
g3
F0.006362736718995996
sg4
F1211.0
sg5
F227449.0
sg6
F1271582.0
sg7
F9410.0
sg8
F0.38461538461538464
sg9
I00
sg10
F417619.0
sg11
F175000.0
sg12
F35.0
sg13
F-75000.0
sg14
F-153686.0
sg15
F740.5
sg16
F2000000.0
sg17
F41.0
sg18
F150656.0
sg19
F103750.0
sg20
F-0.46807406651603933
sg21
F750000.0
sg22
F417619.0
sg23
F-1.0535777394286818
sg24
F8.0
sg25
F417619.0
sg26
F261516.0
sg27
F1271582.0
sg28
F1043324.5
ssS'OLSON CINDY K'
p161
(dp162
g3
F0.01266891891891892
sg4
F1184.0
sg5
F77716.0
sg6
F1321557.0
sg7
F63791.0
sg8
F0.38461538461538464
sg9
I00
sg10
F2606763.0
sg11
F100000.0
sg12
F20.0
sg13
F-144062.0
sg14
F-153686.0
sg15
F856.0
sg16
F2000000.0
sg17
F52.0
sg18
F972.0
sg19
F103750.0
sg20
F-2.0695696959773815
sg21
F750000.0
sg22
F2606763.0
sg23
F-0.8237784017976271
sg24
F15.0
sg25
F969729.0
sg26
F329078.0
sg27
F1321557.0
sg28
F1637034.0
ssS'MCDONALD REBECCA'
p163
(dp164
g3
F0.0011185682326621924
sg4
F894.0
sg5
F227449.0
sg6
F1089742.0
sg7
F46547.5
sg8
F4.153846153846154
sg9
I00
sg10
F1691366.0
sg11
F422158.0
sg12
F54.0
sg13
F-144062.0
sg14
F-153686.0
sg15
F720.0
sg16
F2000000.0
sg17
F13.0
sg18
F51587.0
sg19
F103750.0
sg20
F-1.788596780193325
sg21
F700000.0
sg22
F1691366.0
sg23
F-0.9802084933419314
sg24
F1.0
sg25
F934065.0
sg26
F248346.0
sg27
F1095881.5
sg28
F757301.0
ssS'CUMBERLAND MICHAEL S'
p165
(dp166
g3
F0.006362736718995996
sg4
F1211.0
sg5
F227449.0
sg6
F807956.0
sg7
F22344.0
sg8
F0.38461538461538464
sg9
I00
sg10
F207940.0
sg11
F275000.0
sg12
F35.0
sg13
F-144062.0
sg14
F-153686.0
sg15
F740.5
sg16
F2000000.0
sg17
F41.0
sg18
F713.0
sg19
F103750.0
sg20
F-0.11743984650019644
sg21
F325000.0
sg22
F207940.0
sg23
F-0.5640154522801099
sg24
F8.0
sg25
F207940.0
sg26
F184899.0
sg27
F807956.0
sg28
F1043324.5
ssS'GAHN ROBERT S'
p167
(dp168
g3
F0.006362736718995996
sg4
F1211.0
sg5
F73122.0
sg6
F900585.0
sg7
F50080.0
sg8
F0.38461538461538464
sg9
I00
sg10
F318607.0
sg11
F422158.0
sg12
F35.0
sg13
F-1042.0
sg14
F-153686.0
sg15
F740.5
sg16
F2000000.0
sg17
F41.0
sg18
F76547.0
sg19
F103750.0
sg20
F-0.5064213305318358
sg21
F509870.0
sg22
F318607.0
sg23
F-0.9766187534381437
sg24
F8.0
sg25
F235370.0
sg26
F192008.0
sg27
F900585.0
sg28
F83237.0
ssS'MCCLELLAN GEORGE'
p169
(dp170
g3
F0.0
sg4
F1744.0
sg5
F227449.0
sg6
F1318763.0
sg7
F228763.0
sg8
F1.0612244897959184
sg9
I00
sg10
F947861.0
sg11
F422158.0
sg12
F52.0
sg13
F-125000.0
sg14
F-153686.0
sg15
F1469.0
sg16
F2000000.0
sg17
F49.0
sg18
F51587.0
sg19
F103750.0
sg20
F-1.2804847243469726
sg21
F900000.0
sg22
F947861.0
sg23
F-1.2286716206392543
sg24
F0.0
sg25
F441096.0
sg26
F263413.0
sg27
F1318763.0
sg28
F506765.0
ssS'HERMANN ROBERT J'
p171
(dp172
g3
F0.006362736718995996
sg4
F1211.0
sg5
F227449.0
sg6
F1297461.0
sg7
F48357.0
sg8
F0.38461538461538464
sg9
I00
sg10
F668132.0
sg11
F150000.0
sg12
F35.0
sg13
F-280000.0
sg14
F-153686.0
sg15
F740.5
sg16
F2000000.0
sg17
F41.0
sg18
F416441.0
sg19
F103750.0
sg20
F-0.9336139171043367
sg21
F700000.0
sg22
F668132.0
sg23
F-0.9802084933419314
sg24
F8.0
sg25
F480632.0
sg26
F262663.0
sg27
F1297461.0
sg28
F187500.0
ssS'SCRIMSHAW MATTHEW'
p173
(dp174
g3
F0.006362736718995996
sg4
F1211.0
sg5
F227449.0
sg6
F1089742.0
sg7
F46547.5
sg8
F0.38461538461538464
sg9
I00
sg10
F759557.0
sg11
F422158.0
sg12
F35.0
sg13
F-144062.0
sg14
F-153686.0
sg15
F740.5
sg16
F2000000.0
sg17
F41.0
sg18
F51587.0
sg19
F103750.0
sg20
F-1.788596780193325
sg21
F700000.0
sg22
F759557.0
sg23
F-0.9802084933419314
sg24
F8.0
sg25
F451740.0
sg26
F248346.0
sg27
F1095881.5
sg28
F759557.0
ssS'GATHMANN WILLIAM D'
p175
(dp176
g3
F0.006362736718995996
sg4
F1211.0
sg5
F227449.0
sg6
F1089742.0
sg7
F46547.5
sg8
F0.38461538461538464
sg9
I00
sg10
F1945360.0
sg11
F422158.0
sg12
F35.0
sg13
F-144062.0
sg14
F-72419.0
sg15
F740.5
sg16
F2000000.0
sg17
F41.0
sg18
F51587.0
sg19
F103750.0
sg20
F-1.788596780193325
sg21
F700000.0
sg22
F1945360.0
sg23
F-0.9802084933419314
sg24
F8.0
sg25
F264013.0
sg26
F248346.0
sg27
F1095881.5
sg28
F1753766.0
ssS'HAEDICKE MARK E'
p177
(dp178
g3
F0.015215764529807932
sg4
F4009.0
sg5
F2157527.0
sg6
F3859065.0
sg7
F76169.0
sg8
F0.09273570324574962
sg9
I00
sg10
F803094.0
sg11
F983346.0
sg12
F180.0
sg13
F-934484.0
sg14
F-329825.0
sg15
F1847.0
sg16
F2000000.0
sg17
F1941.0
sg18
F52382.0
sg19
F103750.0
sg20
F-0.7638818019439626
sg21
F1150000.0
sg22
F803094.0
sg23
F-1.1229272551844327
sg24
F61.0
sg25
F524169.0
sg26
F374125.0
sg27
F3859065.0
sg28
F608750.0
ssS'BOWEN JR RAYMOND M'
p179
(dp180
g3
F0.008073196986006458
sg4
F1858.0
sg5
F227449.0
sg6
F2669589.0
sg7
F65907.0
sg8
F5.185185185185185
sg9
I01
sg10
F252055.0
sg11
F974293.0
sg12
F140.0
sg13
F-833.0
sg14
F-153686.0
sg15
F1593.0
sg16
F2000000.0
sg17
F27.0
sg18
F1621.0
sg19
F103750.0
sg20
F0.10013333304896739
sg21
F1350000.0
sg22
F252055.0
sg23
F-1.578079220717763
sg24
F15.0
sg25
F252055.0
sg26
F278601.0
sg27
F2669589.0
sg28
F1043324.5
ssS'GILLIS JOHN'
p181
(dp182
g3
F0.006362736718995996
sg4
F1211.0
sg5
F227449.0
sg6
F1089742.0
sg7
F46547.5
sg8
F0.38461538461538464
sg9
I00
sg10
F85641.0
sg11
F422158.0
sg12
F35.0
sg13
F-144062.0
sg14
F-153686.0
sg15
F740.5
sg16
F2000000.0
sg17
F41.0
sg18
F51587.0
sg19
F103750.0
sg20
F-1.788596780193325
sg21
F700000.0
sg22
F85641.0
sg23
F-0.9802084933419314
sg24
F8.0
sg25
F75838.0
sg26
F248346.0
sg27
F1095881.5
sg28
F9803.0
ssS'FITZGERALD JAY L'
p183
(dp184
g3
F0.008547008547008548
sg4
F936.0
sg5
F227449.0
sg6
F1414857.0
sg7
F23870.0
sg8
F0.0625
sg9
I00
sg10
F1621236.0
sg11
F556416.0
sg12
F1.0
sg13
F-144062.0
sg14
F-153686.0
sg15
F723.0
sg16
F2000000.0
sg17
F16.0
sg18
F285414.0
sg19
F103750.0
sg20
F-2.0968506418862964
sg21
F350000.0
sg22
F1621236.0
sg23
F-0.5638396960886456
sg24
F8.0
sg25
F956775.0
sg26
F199157.0
sg27
F1414857.0
sg28
F664461.0
ssS'MORAN MICHAEL P'
p185
(dp186
g3
F0.0
sg4
F672.0
sg5
F227449.0
sg6
F1089742.0
sg7
F46547.5
sg8
F0.0
sg9
I00
sg10
F221141.0
sg11
F422158.0
sg12
F0.0
sg13
F-144062.0
sg14
F-153686.0
sg15
F127.0
sg16
F2000000.0
sg17
F19.0
sg18
F51587.0
sg19
F103750.0
sg20
F-1.788596780193325
sg21
F700000.0
sg22
F221141.0
sg23
F-0.9802084933419314
sg24
F0.0
sg25
F161602.0
sg26
F248346.0
sg27
F1095881.5
sg28
F59539.0
ssS'REDMOND BRIAN L'
p187
(dp188
g3
F0.029323758228605626
sg4
F1671.0
sg5
F227449.0
sg6
F111529.0
sg7
F14689.0
sg8
F0.9230769230769231
sg9
I00
sg10
F7890324.0
sg11
F422158.0
sg12
F204.0
sg13
F-144062.0
sg14
F-153686.0
sg15
F1063.0
sg16
F2000000.0
sg17
F221.0
sg18
F51587.0
sg19
F103750.0
sg20
F-4.400332345565716
sg21
F700000.0
sg22
F7890324.0
sg23
F-0.9802084933419314
sg24
F49.0
sg25
F381285.0
sg26
F96840.0
sg27
F111529.0
sg28
F7509039.0
ssS'BAZELIDES PHILIP J'
p189
(dp190
g3
F0.006362736718995996
sg4
F1211.0
sg5
F684694.0
sg6
F860136.0
sg7
F46547.5
sg8
F0.38461538461538464
sg9
I00
sg10
F1599641.0
sg11
F93750.0
sg12
F35.0
sg13
F-144062.0
sg14
F-153686.0
sg15
F740.5
sg16
F2000000.0
sg17
F41.0
sg18
F874.0
sg19
F103750.0
sg20
F-2.985334795057818
sg21
F700000.0
sg22
F1599641.0
sg23
F-0.9802084933419314
sg24
F8.0
sg25
F451740.0
sg26
F80818.0
sg27
F860136.0
sg28
F1599641.0
ssS'BELDEN TIMOTHY N'
p191
(dp192
g3
F0.013515204605180828
sg4
F7991.0
sg5
F2144013.0
sg6
F5501630.0
sg7
F17355.0
sg8
F0.47107438016528924
sg9
I01
sg10
F1110705.0
sg11
F422158.0
sg12
F228.0
sg13
F-2334434.0
sg14
F-153686.0
sg15
F5521.0
sg16
F2000000.0
sg17
F484.0
sg18
F210698.0
sg19
F103750.0
sg20
F-1.646778885714821
sg21
F5249999.0
sg22
F1110705.0
sg23
F-3.2000118229957235
sg24
F108.0
sg25
F157569.0
sg26
F213999.0
sg27
F5501630.0
sg28
F953136.0
ssS'DURAN WILLIAM D'
p193
(dp194
g3
F0.00331858407079646
sg4
F904.0
sg5
F227449.0
sg6
F2093263.0
sg7
F25785.0
sg8
F8.833333333333334
sg9
I00
sg10
F1640910.0
sg11
F1105218.0
sg12
F106.0
sg13
F-144062.0
sg14
F-153686.0
sg15
F599.0
sg16
F2000000.0
sg17
F12.0
sg18
F1568.0
sg19
F103750.0
sg20
F-2.052608893565651
sg21
F750000.0
sg22
F1640910.0
sg23
F-1.2696758551168836
sg24
F3.0
sg25
F189041.0
sg26
F210692.0
sg27
F2093263.0
sg28
F1451869.0
ssS'THORN TERENCE H'
p195
(dp196
g3
F0.0
sg4
F266.0
sg5
F16586.0
sg6
F911453.0
sg7
F46145.0
sg8
F0.0
sg9
I00
sg10
F4817796.0
sg11
F200000.0
sg12
F0.0
sg13
F-144062.0
sg14
F-153686.0
sg15
F73.0
sg16
F2000000.0
sg17
F41.0
sg18
F426629.0
sg19
F103750.0
sg20
F-3.076975627988812
sg21
F700000.0
sg22
F4817796.0
sg23
F-0.9802084933419314
sg24
F0.0
sg25
F365320.0
sg26
F222093.0
sg27
F911453.0
sg28
F4452476.0
ssS'FASTOW ANDREW S'
p197
(dp198
g3
F0.006362736718995996
sg4
F1211.0
sg5
F227449.0
sg6
F2424083.0
sg7
F55921.0
sg8
F0.38461538461538464
sg9
I01
sg10
F1794412.0
sg11
F1736055.0
sg12
F35.0
sg13
F-1386055.0
sg14
F-153686.0
sg15
F740.5
sg16
F2000000.0
sg17
F41.0
sg18
F277464.0
sg19
F103750.0
sg20
F-1.788596780193325
sg21
F700000.0
sg22
F1794412.0
sg23
F-0.9802084933419314
sg24
F8.0
sg25
F1794412.0
sg26
F248346.0
sg27
F2424083.0
sg28
F1043324.5
ssS'FOY JOE'
p199
(dp200
g3
F0.0
sg4
F57.0
sg5
F181755.0
sg6
F181755.0
sg7
F46547.5
sg8
F0.0
sg9
I00
sg10
F343434.0
sg11
F422158.0
sg12
F0.0
sg13
F-144062.0
sg14
F-153686.0
sg15
F2.0
sg16
F2000000.0
sg17
F13.0
sg18
F51587.0
sg19
F103750.0
sg20
F-1.788596780193325
sg21
F700000.0
sg22
F343434.0
sg23
F-0.9802084933419314
sg24
F0.0
sg25
F451740.0
sg26
F248346.0
sg27
F181755.0
sg28
F343434.0
ssS'CALGER CHRISTOPHER F'
p201
(dp202
g3
F0.00962278675904542
sg4
F2598.0
sg5
F227449.0
sg6
F1639297.0
sg7
F35818.0
sg8
F1.3819444444444444
sg9
I01
sg10
F126027.0
sg11
F375304.0
sg12
F199.0
sg13
F-262500.0
sg14
F-153686.0
sg15
F2188.0
sg16
F2000000.0
sg17
F144.0
sg18
F486.0
sg19
F103750.0
sg20
F0.6449299437167019
sg21
F1250000.0
sg22
F126027.0
sg23
F-1.6494727168697856
sg24
F25.0
sg25
F126027.0
sg26
F240189.0
sg27
F1639297.0
sg28
F1043324.5
ssS'RICE KENNETH D'
p203
(dp204
g3
F0.004419889502762431
sg4
F905.0
sg5
F227449.0
sg6
F505050.0
sg7
F46950.0
sg8
F2.3333333333333335
sg9
I01
sg10
F22542539.0
sg11
F1617011.0
sg12
F42.0
sg13
F-3504386.0
sg14
F-153686.0
sg15
F864.0
sg16
F2000000.0
sg17
F18.0
sg18
F174839.0
sg19
F103750.0
sg20
F-3.9813915738207726
sg21
F700000.0
sg22
F22542539.0
sg23
F-1.4256032153003353
sg24
F4.0
sg25
F2748364.0
sg26
F248346.0
sg27
F505050.0
sg28
F1043324.5
ssS'KAMINSKI WINCENTY J'
p205
(dp206
g3
F0.03711742999782939
sg4
F4607.0
sg5
F227449.0
sg6
F1086821.0
sg7
F83585.0
sg8
F0.002853563474387528
sg9
I00
sg10
F976037.0
sg11
F323466.0
sg12
F41.0
sg13
F-144062.0
sg14
F-153686.0
sg15
F583.0
sg16
F2000000.0
sg17
F14368.0
sg18
F4669.0
sg19
F103750.0
sg20
F-1.2663621925648734
sg21
F400000.0
sg22
F976037.0
sg23
F-0.3743262441422569
sg24
F171.0
sg25
F126027.0
sg26
F275101.0
sg27
F1086821.0
sg28
F850010.0
ssS'COX DAVID'
p207
(dp208
g3
F0.0392156862745098
sg4
F102.0
sg5
F227449.0
sg6
F1101393.0
sg7
F27861.0
sg8
F0.0
sg9
I00
sg10
F495633.0
sg11
F422158.0
sg12
F0.0
sg13
F-41250.0
sg14
F-153686.0
sg15
F71.0
sg16
F2000000.0
sg17
F33.0
sg18
F494.0
sg19
F103750.0
sg20
F-0.455525970502737
sg21
F800000.0
sg22
F495633.0
sg23
F-0.9343019646760068
sg24
F4.0
sg25
F378082.0
sg26
F314288.0
sg27
F1101393.0
sg28
F117551.0
ssS'OVERDYKE JR JERE C'
p209
(dp210
g3
F0.006362736718995996
sg4
F1211.0
sg5
F227449.0
sg6
F249787.0
sg7
F18834.0
sg8
F0.38461538461538464
sg9
I00
sg10
F7307594.0
sg11
F135836.0
sg12
F35.0
sg13
F-144062.0
sg14
F-153686.0
sg15
F740.5
sg16
F2000000.0
sg17
F41.0
sg18
F176.0
sg19
F103750.0
sg20
F-4.343413714363184
sg21
F700000.0
sg22
F7307594.0
sg23
F-0.9802084933419314
sg24
F8.0
sg25
F2041016.0
sg26
F94941.0
sg27
F249787.0
sg28
F5266578.0
ssS'PEREIRA PAULO V. FERRAZ'
p211
(dp212
g3
F0.006362736718995996
sg4
F1211.0
sg5
F227449.0
sg6
F27942.0
sg7
F27942.0
sg8
F0.38461538461538464
sg9
I00
sg10
F1088014.0
sg11
F422158.0
sg12
F35.0
sg13
F-101250.0
sg14
F-153686.0
sg15
F740.5
sg16
F2000000.0
sg17
F41.0
sg18
F51587.0
sg19
F101250.0
sg20
F-1.788596780193325
sg21
F700000.0
sg22
F1102872.5
sg23
F-0.9802084933419314
sg24
F8.0
sg25
F451740.0
sg26
F248346.0
sg27
F27942.0
sg28
F1043324.5
ssS'STABLER FRANK'
p213
(dp214
g3
F0.006362736718995996
sg4
F1211.0
sg5
F227449.0
sg6
F1112087.0
sg7
F16514.0
sg8
F0.38461538461538464
sg9
I00
sg10
F511734.0
sg11
F422158.0
sg12
F35.0
sg13
F-144062.0
sg14
F-153686.0
sg15
F740.5
sg16
F2000000.0
sg17
F41.0
sg18
F356071.0
sg19
F103750.0
sg20
F-0.7592431912395954
sg21
F500000.0
sg22
F511734.0
sg23
F-0.7360463308754001
sg24
F8.0
sg25
F511734.0
sg26
F239502.0
sg27
F1112087.0
sg28
F1043324.5
ssS'SKILLING JEFFREY K'
p215
(dp216
g3
F0.008271298593879239
sg4
F3627.0
sg5
F227449.0
sg6
F8682716.0
sg7
F29336.0
sg8
F0.8148148148148148
sg9
I01
sg10
F26093672.0
sg11
F1920000.0
sg12
F88.0
sg13
F-144062.0
sg14
F-153686.0
sg15
F2042.0
sg16
F2000000.0
sg17
F108.0
sg18
F22122.0
sg19
F103750.0
sg20
F-1.788596780193325
sg21
F700000.0
sg22
F26093672.0
sg23
F-0.9802084933419314
sg24
F30.0
sg25
F6843672.0
sg26
F248346.0
sg27
F8682716.0
sg28
F1043324.5
ssS'BLAKE JR. NORMAN P'
p217
(dp218
g3
F0.006362736718995996
sg4
F1211.0
sg5
F227449.0
sg6
F1279.0
sg7
F1279.0
sg8
F0.38461538461538464
sg9
I00
sg10
F1088014.0
sg11
F422158.0
sg12
F35.0
sg13
F-113784.0
sg14
F-153686.0
sg15
F740.5
sg16
F2000000.0
sg17
F41.0
sg18
F51587.0
sg19
F113784.0
sg20
F-1.788596780193325
sg21
F700000.0
sg22
F1102872.5
sg23
F-0.9802084933419314
sg24
F8.0
sg25
F451740.0
sg26
F248346.0
sg27
F1279.0
sg28
F1043324.5
ssS'SHERRICK JEFFREY B'
p219
(dp220
g3
F0.02936378466557912
sg4
F613.0
sg5
F227449.0
sg6
F1089742.0
sg7
F46547.5
sg8
F1.56
sg9
I00
sg10
F1832468.0
sg11
F422158.0
sg12
F39.0
sg13
F-144062.0
sg14
F-153686.0
sg15
F583.0
sg16
F2000000.0
sg17
F25.0
sg18
F51587.0
sg19
F103750.0
sg20
F-1.788596780193325
sg21
F700000.0
sg22
F1832468.0
sg23
F-0.9802084933419314
sg24
F18.0
sg25
F405999.0
sg26
F248346.0
sg27
F1095881.5
sg28
F1426469.0
ssS'PRENTICE JAMES'
p221
(dp222
g3
F0.006362736718995996
sg4
F1211.0
sg5
F564348.0
sg6
F564348.0
sg7
F46547.5
sg8
F0.38461538461538464
sg9
I00
sg10
F1095040.0
sg11
F422158.0
sg12
F35.0
sg13
F-144062.0
sg14
F-153686.0
sg15
F740.5
sg16
F2000000.0
sg17
F41.0
sg18
F51587.0
sg19
F103750.0
sg20
F-1.788596780193325
sg21
F700000.0
sg22
F1095040.0
sg23
F-0.9802084933419314
sg24
F8.0
sg25
F208809.0
sg26
F248346.0
sg27
F564348.0
sg28
F886231.0
ssS'GRAY RODNEY'
p223
(dp224
g3
F0.006362736718995996
sg4
F1211.0
sg5
F93585.0
sg6
F1146658.0
sg7
F46547.5
sg8
F0.38461538461538464
sg9
I00
sg10
F1088014.0
sg11
F365625.0
sg12
F35.0
sg13
F-144062.0
sg14
F-153686.0
sg15
F740.5
sg16
F2000000.0
sg17
F41.0
sg18
F680833.0
sg19
F103750.0
sg20
F-1.788596780193325
sg21
F700000.0
sg22
F1102872.5
sg23
F-0.9802084933419314
sg24
F8.0
sg25
F451740.0
sg26
F6615.0
sg27
F1146658.0
sg28
F1043324.5
ssS'PICKERING MARK R'
p225
(dp226
g3
F0.0
sg4
F898.0
sg5
F227449.0
sg6
F1386690.0
sg7
F31653.0
sg8
F0.1044776119402985
sg9
I00
sg10
F28798.0
sg11
F422158.0
sg12
F7.0
sg13
F-144062.0
sg14
F-153686.0
sg15
F728.0
sg16
F400000.0
sg17
F67.0
sg18
F51587.0
sg19
F103750.0
sg20
F-1.788596780193325
sg21
F700000.0
sg22
F28798.0
sg23
F-0.9802084933419314
sg24
F0.0
sg25
F451740.0
sg26
F248346.0
sg27
F1386690.0
sg28
F1043324.5
ssS'THE TRAVEL AGENCY IN THE PARK'
p227
(dp228
g3
F0.006362736718995996
sg4
F1211.0
sg5
F227449.0
sg6
F362096.0
sg7
F46547.5
sg8
F0.38461538461538464
sg9
I00
sg10
F1088014.0
sg11
F422158.0
sg12
F35.0
sg13
F-144062.0
sg14
F-153686.0
sg15
F740.5
sg16
F2000000.0
sg17
F41.0
sg18
F362096.0
sg19
F103750.0
sg20
F-1.788596780193325
sg21
F700000.0
sg22
F1102872.5
sg23
F-0.9802084933419314
sg24
F8.0
sg25
F451740.0
sg26
F248346.0
sg27
F362096.0
sg28
F1043324.5
ssS'NOLES JAMES L'
p229
(dp230
g3
F0.006362736718995996
sg4
F1211.0
sg5
F774401.0
sg6
F774401.0
sg7
F46547.5
sg8
F0.38461538461538464
sg9
I00
sg10
F368705.0
sg11
F422158.0
sg12
F35.0
sg13
F-144062.0
sg14
F-94556.0
sg15
F740.5
sg16
F2000000.0
sg17
F41.0
sg18
F51587.0
sg19
F103750.0
sg20
F-1.788596780193325
sg21
F700000.0
sg22
F368705.0
sg23
F-0.9802084933419314
sg24
F8.0
sg25
F463261.0
sg26
F248346.0
sg27
F774401.0
sg28
F1043324.5
ssS'KEAN STEVEN J'
p231
(dp232
g3
F0.03034342167163243
sg4
F12754.0
sg5
F227449.0
sg6
F1747522.0
sg7
F41953.0
sg8
F0.020713123243083296
sg9
I00
sg10
F6153642.0
sg11
F300000.0
sg12
F140.0
sg13
F-144062.0
sg14
F-153686.0
sg15
F3639.0
sg16
F2000000.0
sg17
F6759.0
sg18
F1231.0
sg19
F103750.0
sg20
F-2.7225482188025265
sg21
F1000000.0
sg22
F6153642.0
sg23
F-0.9055041171404842
sg24
F387.0
sg25
F4131594.0
sg26
F404338.0
sg27
F1747522.0
sg28
F2022048.0
ssS'FOWLER PEGGY'
p233
(dp234
g3
F0.0
sg4
F517.0
sg5
F227449.0
sg6
F1089742.0
sg7
F46547.5
sg8
F0.0
sg9
I00
sg10
F1884748.0
sg11
F422158.0
sg12
F0.0
sg13
F-144062.0
sg14
F-153686.0
sg15
F10.0
sg16
F2000000.0
sg17
F36.0
sg18
F51587.0
sg19
F103750.0
sg20
F-1.788596780193325
sg21
F700000.0
sg22
F1884748.0
sg23
F-0.9802084933419314
sg24
F0.0
sg25
F560170.0
sg26
F248346.0
sg27
F1095881.5
sg28
F1324578.0
ssS'WASAFF GEORGE'
p235
(dp236
g3
F0.0175
sg4
F400.0
sg5
F831299.0
sg6
F1034395.0
sg7
F46547.5
sg8
F0.7333333333333333
sg9
I00
sg10
F2056427.0
sg11
F200000.0
sg12
F22.0
sg13
F-583325.0
sg14
F-153686.0
sg15
F337.0
sg16
F2000000.0
sg17
F30.0
sg18
F1425.0
sg19
F103750.0
sg20
F-2.068059043554652
sg21
F325000.0
sg22
F2056427.0
sg23
F-0.22315893604793882
sg24
F7.0
sg25
F388167.0
sg26
F259996.0
sg27
F1034395.0
sg28
F1668260.0
ssS'WHITE JR THOMAS E'
p237
(dp238
g3
F0.006362736718995996
sg4
F1211.0
sg5
F227449.0
sg6
F1934359.0
sg7
F81353.0
sg8
F0.38461538461538464
sg9
I00
sg10
F15144123.0
sg11
F422158.0
sg12
F35.0
sg13
F-144062.0
sg14
F-153686.0
sg15
F740.5
sg16
F2000000.0
sg17
F41.0
sg18
F1085463.0
sg19
F103750.0
sg20
F-3.8647545726513193
sg21
F450000.0
sg22
F15144123.0
sg23
F-0.34863434053098336
sg24
F8.0
sg25
F13847074.0
sg26
F317543.0
sg27
F1934359.0
sg28
F1297049.0
ssS'CHRISTODOULOU DIOMEDES'
p239
(dp240
g3
F0.006362736718995996
sg4
F1211.0
sg5
F227449.0
sg6
F1089742.0
sg7
F46547.5
sg8
F0.38461538461538464
sg9
I00
sg10
F6077885.0
sg11
F422158.0
sg12
F35.0
sg13
F-144062.0
sg14
F-153686.0
sg15
F740.5
sg16
F2000000.0
sg17
F41.0
sg18
F51587.0
sg19
F103750.0
sg20
F-1.788596780193325
sg21
F700000.0
sg22
F6077885.0
sg23
F-0.9802084933419314
sg24
F8.0
sg25
F950730.0
sg26
F248346.0
sg27
F1095881.5
sg28
F5127155.0
ssS'ALLEN PHILLIP K'
p241
(dp242
g3
F0.022398345968297727
sg4
F2902.0
sg5
F2869717.0
sg6
F4484442.0
sg7
F13868.0
sg8
F0.0214123006833713
sg9
I00
sg10
F1729541.0
sg11
F304805.0
sg12
F47.0
sg13
F-3081055.0
sg14
F-126027.0
sg15
F1407.0
sg16
F2000000.0
sg17
F2195.0
sg18
F152.0
sg19
F103750.0
sg20
F-2.147566434063176
sg21
F4175000.0
sg22
F1729541.0
sg23
F-3.0288247369784083
sg24
F65.0
sg25
F126027.0
sg26
F201955.0
sg27
F4484442.0
sg28
F1729541.0
ssS'SHARP VICTORIA T'
p243
(dp244
g3
F0.001913265306122449
sg4
F3136.0
sg5
F187469.0
sg6
F1576511.0
sg7
F116337.0
sg8
F0.17647058823529413
sg9
I00
sg10
F494136.0
sg11
F422158.0
sg12
F24.0
sg13
F-144062.0
sg14
F-153686.0
sg15
F2477.0
sg16
F2000000.0
sg17
F136.0
sg18
F2401.0
sg19
F103750.0
sg20
F-0.6887935003217119
sg21
F600000.0
sg22
F494136.0
sg23
F-0.8829123725953055
sg24
F6.0
sg25
F213063.0
sg26
F248146.0
sg27
F1576511.0
sg28
F281073.0
ssS'JAEDICKE ROBERT'
p245
(dp246
g3
F0.006362736718995996
sg4
F1211.0
sg5
F227449.0
sg6
F83750.0
sg7
F46547.5
sg8
F0.38461538461538464
sg9
I00
sg10
F431750.0
sg11
F422158.0
sg12
F35.0
sg13
F-25000.0
sg14
F-44093.0
sg15
F740.5
sg16
F2000000.0
sg17
F41.0
sg18
F51587.0
sg19
F108750.0
sg20
F-1.788596780193325
sg21
F700000.0
sg22
F431750.0
sg23
F-0.9802084933419314
sg24
F8.0
sg25
F44093.0
sg26
F248346.0
sg27
F83750.0
sg28
F431750.0
ssS'WINOKUR JR. HERBERT S'
p247
(dp248
g3
F0.006362736718995996
sg4
F1211.0
sg5
F227449.0
sg6
F84992.0
sg7
F1413.0
sg8
F0.38461538461538464
sg9
I00
sg10
F1088014.0
sg11
F422158.0
sg12
F35.0
sg13
F-25000.0
sg14
F-153686.0
sg15
F740.5
sg16
F2000000.0
sg17
F41.0
sg18
F51587.0
sg19
F108579.0
sg20
F-1.788596780193325
sg21
F700000.0
sg22
F1102872.5
sg23
F-0.9802084933419314
sg24
F8.0
sg25
F451740.0
sg26
F248346.0
sg27
F84992.0
sg28
F1043324.5
ssS'BROWN MICHAEL'
p249
(dp250
g3
F0.0006729475100942127
sg4
F1486.0
sg5
F227449.0
sg6
F49288.0
sg7
F49288.0
sg8
F0.3170731707317073
sg9
I00
sg10
F1088014.0
sg11
F422158.0
sg12
F13.0
sg13
F-144062.0
sg14
F-153686.0
sg15
F761.0
sg16
F2000000.0
sg17
F41.0
sg18
F51587.0
sg19
F103750.0
sg20
F-1.788596780193325
sg21
F700000.0
sg22
F1102872.5
sg23
F-0.9802084933419314
sg24
F1.0
sg25
F451740.0
sg26
F248346.0
sg27
F49288.0
sg28
F1043324.5
ssS'BADUM JAMES P'
p251
(dp252
g3
F0.006362736718995996
sg4
F1211.0
sg5
F178980.0
sg6
F182466.0
sg7
F3486.0
sg8
F0.38461538461538464
sg9
I00
sg10
F257817.0
sg11
F422158.0
sg12
F35.0
sg13
F-144062.0
sg14
F-153686.0
sg15
F740.5
sg16
F2000000.0
sg17
F41.0
sg18
F51587.0
sg19
F103750.0
sg20
F-1.788596780193325
sg21
F700000.0
sg22
F257817.0
sg23
F-0.9802084933419314
sg24
F8.0
sg25
F451740.0
sg26
F248346.0
sg27
F182466.0
sg28
F257817.0
ssS'HUGHES JAMES A'
p253
(dp254
g3
F0.006954102920723227
sg4
F719.0
sg5
F227449.0
sg6
F1089742.0
sg7
F46547.5
sg8
F1.0294117647058822
sg9
I00
sg10
F1118394.0
sg11
F422158.0
sg12
F35.0
sg13
F-144062.0
sg14
F-153686.0
sg15
F589.0
sg16
F2000000.0
sg17
F34.0
sg18
F51587.0
sg19
F103750.0
sg20
F-1.788596780193325
sg21
F700000.0
sg22
F1118394.0
sg23
F-0.9802084933419314
sg24
F5.0
sg25
F363428.0
sg26
F248346.0
sg27
F1095881.5
sg28
F754966.0
ssS'REYNOLDS LAWRENCE'
p255
(dp256
g3
F0.006362736718995996
sg4
F1211.0
sg5
F51365.0
sg6
F394475.0
sg7
F8409.0
sg8
F0.38461538461538464
sg9
I00
sg10
F4221891.0
sg11
F156250.0
sg12
F35.0
sg13
F-200000.0
sg14
F-140264.0
sg15
F740.5
sg16
F2000000.0
sg17
F41.0
sg18
F202052.0
sg19
F103750.0
sg20
F-4.01206880384515
sg21
F100000.0
sg22
F4221891.0
sg23
F-0.269200578906514
sg24
F8.0
sg25
F201483.0
sg26
F76399.0
sg27
F394475.0
sg28
F4160672.0
ssS'DIMICHELE RICHARD G'
p257
(dp258
g3
F0.006362736718995996
sg4
F1211.0
sg5
F227449.0
sg6
F2368151.0
sg7
F35812.0
sg8
F0.38461538461538464
sg9
I00
sg10
F8317782.0
sg11
F694862.0
sg12
F35.0
sg13
F-144062.0
sg14
F-153686.0
sg15
F740.5
sg16
F2000000.0
sg17
F41.0
sg18
F374689.0
sg19
F103750.0
sg20
F-3.4548032882688315
sg21
F1000000.0
sg22
F8317782.0
sg23
F-1.3364076555146835
sg24
F8.0
sg25
F126027.0
sg26
F262788.0
sg27
F2368151.0
sg28
F8191755.0
ssS'BHATNAGAR SANJAY'
p259
(dp260
g3
F0.0019120458891013384
sg4
F523.0
sg5
F227449.0
sg6
F137864.0
sg7
F137864.0
sg8
F0.0
sg9
I00
sg10
F15456290.0
sg11
F422158.0
sg12
F0.0
sg13
F-144062.0
sg14
F-2604490.0
sg15
F463.0
sg16
F2000000.0
sg17
F29.0
sg18
F51587.0
sg19
F103750.0
sg20
F-1.788596780193325
sg21
F700000.0
sg22
F15456290.0
sg23
F-0.9802084933419314
sg24
F1.0
sg25
F2604490.0
sg26
F248346.0
sg27
F137864.0
sg28
F15456290.0
ssS'CARTER REBECCA C'
p261
(dp262
g3
F0.022435897435897436
sg4
F312.0
sg5
F227449.0
sg6
F477557.0
sg7
F46547.5
sg8
F1.9333333333333333
sg9
I00
sg10
F0.0
sg11
F75000.0
sg12
F29.0
sg13
F-159792.0
sg14
F-307301.0
sg15
F196.0
sg16
F2000000.0
sg17
F15.0
sg18
F540.0
sg19
F103750.0
sg20
F-1.788596780193325
sg21
F300000.0
sg22
F1102872.5
sg23
F-0.13616724438397176
sg24
F7.0
sg25
F307301.0
sg26
F261809.0
sg27
F477557.0
sg28
F1043324.5
ssS'BUCHANAN HAROLD G'
p263
(dp264
g3
F0.0
sg4
F1088.0
sg5
F227449.0
sg6
F1054637.0
sg7
F600.0
sg8
F0.0
sg9
I00
sg10
F1014505.0
sg11
F304805.0
sg12
F0.0
sg13
F-144062.0
sg14
F-153686.0
sg15
F23.0
sg16
F2000000.0
sg17
F125.0
sg18
F1215.0
sg19
F103750.0
sg20
F-1.4086587955872034
sg21
F500000.0
sg22
F1014505.0
sg23
F-0.7011108062194462
sg24
F0.0
sg25
F189041.0
sg26
F248017.0
sg27
F1054637.0
sg28
F825464.0
ssS'YEAP SOON'
p265
(dp266
g3
F0.006362736718995996
sg4
F1211.0
sg5
F227449.0
sg6
F55097.0
sg7
F55097.0
sg8
F0.38461538461538464
sg9
I00
sg10
F192758.0
sg11
F422158.0
sg12
F35.0
sg13
F-144062.0
sg14
F-153686.0
sg15
F740.5
sg16
F2000000.0
sg17
F41.0
sg18
F51587.0
sg19
F103750.0
sg20
F-1.788596780193325
sg21
F700000.0
sg22
F192758.0
sg23
F-0.9802084933419314
sg24
F8.0
sg25
F451740.0
sg26
F248346.0
sg27
F55097.0
sg28
F192758.0
ssS'MURRAY JULIA H'
p267
(dp268
g3
F0.0009124087591240876
sg4
F2192.0
sg5
F227449.0
sg6
F812194.0
sg7
F57580.0
sg8
F0.24444444444444444
sg9
I00
sg10
F597461.0
sg11
F125000.0
sg12
F11.0
sg13
F-144062.0
sg14
F-153686.0
sg15
F395.0
sg16
F2000000.0
sg17
F45.0
sg18
F330.0
sg19
F103750.0
sg20
F-0.9577275998634923
sg21
F400000.0
sg22
F597461.0
sg23
F-0.5565031372626432
sg24
F2.0
sg25
F196983.0
sg26
F229284.0
sg27
F812194.0
sg28
F400478.0
ssS'GARLAND C KEVIN'
p269
(dp270
g3
F0.1291866028708134
sg4
F209.0
sg5
F227449.0
sg6
F1566469.0
sg7
F48405.0
sg8
F0.22727272727272727
sg9
I00
sg10
F896153.0
sg11
F375304.0
sg12
F10.0
sg13
F-144062.0
sg14
F-153686.0
sg15
F178.0
sg16
F2000000.0
sg17
F44.0
sg18
F60814.0
sg19
F103750.0
sg20
F-1.351606571372727
sg21
F850000.0
sg22
F896153.0
sg23
F-1.2987317635312339
sg24
F27.0
sg25
F259907.0
sg26
F231946.0
sg27
F1566469.0
sg28
F636246.0
ssS'DODSON KEITH'
p271
(dp272
g3
F0.017045454545454544
sg4
F176.0
sg5
F227449.0
sg6
F319941.0
sg7
F28164.0
sg8
F0.7142857142857143
sg9
I00
sg10
F1088014.0
sg11
F422158.0
sg12
F10.0
sg13
F-144062.0
sg14
F-153686.0
sg15
F114.0
sg16
F2000000.0
sg17
F14.0
sg18
F774.0
sg19
F103750.0
sg20
F-1.788596780193325
sg21
F70000.0
sg22
F1102872.5
sg23
F1.1496810340368924
sg24
F3.0
sg25
F451740.0
sg26
F221003.0
sg27
F319941.0
sg28
F1043324.5
ssS'YEAGER F SCOTT'
p273
(dp274
g3
F0.006362736718995996
sg4
F1211.0
sg5
F227449.0
sg6
F360300.0
sg7
F53947.0
sg8
F0.38461538461538464
sg9
I01
sg10
F11884758.0
sg11
F422158.0
sg12
F35.0
sg13
F-144062.0
sg14
F-153686.0
sg15
F740.5
sg16
F2000000.0
sg17
F41.0
sg18
F147950.0
sg19
F103750.0
sg20
F-4.317869599191484
sg21
F700000.0
sg22
F11884758.0
sg23
F-0.9802084933419314
sg24
F8.0
sg25
F3576206.0
sg26
F158403.0
sg27
F360300.0
sg28
F8308552.0
ssS'HIRKO JOSEPH'
p275
(dp276
g3
F0.006362736718995996
sg4
F1211.0
sg5
F10259.0
sg6
F91093.0
sg7
F77978.0
sg8
F0.38461538461538464
sg9
I01
sg10
F30766064.0
sg11
F422158.0
sg12
F35.0
sg13
F-144062.0
sg14
F-153686.0
sg15
F740.5
sg16
F2000000.0
sg17
F41.0
sg18
F2856.0
sg19
F103750.0
sg20
F-1.788596780193325
sg21
F700000.0
sg22
F30766064.0
sg23
F-0.9802084933419314
sg24
F8.0
sg25
F451740.0
sg26
F248346.0
sg27
F91093.0
sg28
F30766064.0
ssS'DIETRICH JANET R'
p277
(dp278
g3
F0.005443234836702955
sg4
F2572.0
sg5
F227449.0
sg6
F1410464.0
sg7
F3475.0
sg8
F4.841269841269841
sg9
I00
sg10
F1865087.0
sg11
F556416.0
sg12
F305.0
sg13
F-144062.0
sg14
F-153686.0
sg15
F1902.0
sg16
F2000000.0
sg17
F63.0
sg18
F473.0
sg19
F103750.0
sg20
F-2.009202141899887
sg21
F600000.0
sg22
F1865087.0
sg23
F-0.875068817332573
sg24
F14.0
sg25
F315068.0
sg26
F250100.0
sg27
F1410464.0
sg28
F1550019.0
ssS'DERRICK JR. JAMES V'
p279
(dp280
g3
F0.009170105456212746
sg4
F2181.0
sg5
F227449.0
sg6
F550981.0
sg7
F51124.0
sg8
F0.0704070407040704
sg9
I00
sg10
F8831913.0
sg11
F484000.0
sg12
F64.0
sg13
F-1284000.0
sg14
F-1787380.0
sg15
F1401.0
sg16
F2000000.0
sg17
F909.0
sg18
F7482.0
sg19
F103750.0
sg20
F-1.788596780193325
sg21
F700000.0
sg22
F8831913.0
sg23
F-0.9802084933419314
sg24
F20.0
sg25
F1787380.0
sg26
F248346.0
sg27
F550981.0
sg28
F1043324.5
ssS'FREVERT MARK A'
p281
(dp282
g3
F0.00183206106870229
sg4
F3275.0
sg5
F6426990.0
sg6
F17252530.0
sg7
F86987.0
sg8
F11.523809523809524
sg9
I00
sg10
F14622185.0
sg11
F1617011.0
sg12
F242.0
sg13
F-3367011.0
sg14
F-153686.0
sg15
F2979.0
sg16
F2000000.0
sg17
F21.0
sg18
F7427621.0
sg19
F103750.0
sg20
F-1.788596780193325
sg21
F700000.0
sg22
F14622185.0
sg23
F-0.9802084933419314
sg24
F6.0
sg25
F4188667.0
sg26
F248346.0
sg27
F17252530.0
sg28
F1043324.5
ssS'PAI LOU L'
p283
(dp284
g3
F0.006362736718995996
sg4
F1211.0
sg5
F227449.0
sg6
F3123383.0
sg7
F32047.0
sg8
F0.38461538461538464
sg9
I00
sg10
F23817930.0
sg11
F422158.0
sg12
F35.0
sg13
F-144062.0
sg14
F-153686.0
sg15
F740.5
sg16
F2000000.0
sg17
F41.0
sg18
F1829457.0
sg19
F103750.0
sg20
F-4.510311372347134
sg21
F1000000.0
sg22
F23817930.0
sg23
F-1.3398727139593813
sg24
F8.0
sg25
F8453763.0
sg26
F261879.0
sg27
F3123383.0
sg28
F15364167.0
ssS'BAY FRANKLIN R'
p285
(dp286
g3
F0.006362736718995996
sg4
F1211.0
sg5
F260455.0
sg6
F827696.0
sg7
F129142.0
sg8
F0.38461538461538464
sg9
I00
sg10
F63014.0
sg11
F422158.0
sg12
F35.0
sg13
F-201641.0
sg14
F-82782.0
sg15
F740.5
sg16
F2000000.0
sg17
F41.0
sg18
F69.0
sg19
F103750.0
sg20
F1.3359102256310234
sg21
F400000.0
sg22
F63014.0
sg23
F-0.5121973975509043
sg24
F8.0
sg25
F145796.0
sg26
F239671.0
sg27
F827696.0
sg28
F1043324.5
ssS'HAYSLETT RODERICK J'
p287
(dp288
g3
F0.014345035862589657
sg4
F2649.0
sg5
F227449.0
sg6
F1089742.0
sg7
F46547.5
sg8
F0.03298774740810556
sg9
I00
sg10
F346663.0
sg11
F422158.0
sg12
F35.0
sg13
F-144062.0
sg14
F-153686.0
sg15
F571.0
sg16
F2000000.0
sg17
F1061.0
sg18
F51587.0
sg19
F103750.0
sg20
F-1.788596780193325
sg21
F700000.0
sg22
F346663.0
sg23
F-0.9802084933419314
sg24
F38.0
sg25
F346663.0
sg26
F248346.0
sg27
F1095881.5
sg28
F1043324.5
ssS'FUGH JOHN L'
p289
(dp290
g3
F0.006362736718995996
sg4
F1211.0
sg5
F50591.0
sg6
F50591.0
sg7
F46547.5
sg8
F0.38461538461538464
sg9
I00
sg10
F176378.0
sg11
F422158.0
sg12
F35.0
sg13
F-144062.0
sg14
F-153686.0
sg15
F740.5
sg16
F2000000.0
sg17
F41.0
sg18
F51587.0
sg19
F103750.0
sg20
F-1.788596780193325
sg21
F700000.0
sg22
F176378.0
sg23
F-0.9802084933419314
sg24
F8.0
sg25
F451740.0
sg26
F248346.0
sg27
F50591.0
sg28
F176378.0
ssS'FALLON JAMES B'
p291
(dp292
g3
F0.021082621082621083
sg4
F1755.0
sg5
F227449.0
sg6
F3676340.0
sg7
F95924.0
sg8
F0.56
sg9
I00
sg10
F2332399.0
sg11
F374347.0
sg12
F42.0
sg13
F-144062.0
sg14
F-153686.0
sg15
F1604.0
sg16
F2000000.0
sg17
F75.0
sg18
F401481.0
sg19
F103750.0
sg20
F-2.0356925868490494
sg21
F2500000.0
sg22
F2332399.0
sg23
F-2.105085967100358
sg24
F37.0
sg25
F1392142.0
sg26
F304588.0
sg27
F3676340.0
sg28
F940257.0
ssS'KOENIG MARK E'
p293
(dp294
g3
F0.006318449873631003
sg4
F2374.0
sg5
F227449.0
sg6
F1587421.0
sg7
F127017.0
sg8
F0.8688524590163934
sg9
I01
sg10
F1920055.0
sg11
F300000.0
sg12
F53.0
sg13
F-144062.0
sg14
F-153686.0
sg15
F2271.0
sg16
F2000000.0
sg17
F61.0
sg18
F150458.0
sg19
F103750.0
sg20
F-1.8237110216875299
sg21
F700000.0
sg22
F1920055.0
sg23
F-0.8146822462860581
sg24
F15.0
sg25
F1248318.0
sg26
F309946.0
sg27
F1587421.0
sg28
F671737.0
ssS'SAVAGE FRANK'
p295
(dp296
g3
F0.006362736718995996
sg4
F1211.0
sg5
F227449.0
sg6
F3750.0
sg7
F46547.5
sg8
F0.38461538461538464
sg9
I00
sg10
F1088014.0
sg11
F422158.0
sg12
F35.0
sg13
F-121284.0
sg14
F-153686.0
sg15
F740.5
sg16
F2000000.0
sg17
F41.0
sg18
F51587.0
sg19
F125034.0
sg20
F-1.788596780193325
sg21
F700000.0
sg22
F1102872.5
sg23
F-0.9802084933419314
sg24
F8.0
sg25
F451740.0
sg26
F248346.0
sg27
F3750.0
sg28
F1043324.5
ssS'IZZO LAWRENCE L'
p297
(dp298
g3
F0.010080645161290322
sg4
F496.0
sg5
F227449.0
sg6
F1979596.0
sg7
F28093.0
sg8
F1.4736842105263157
sg9
I00
sg10
F5819980.0
sg11
F312500.0
sg12
F28.0
sg13
F-144062.0
sg14
F-153686.0
sg15
F437.0
sg16
F2000000.0
sg17
F19.0
sg18
F1553729.0
sg19
F103750.0
sg20
F-4.223182502823856
sg21
F700000.0
sg22
F5819980.0
sg23
F-0.9802084933419314
sg24
F5.0
sg25
F3654808.0
sg26
F85274.0
sg27
F1979596.0
sg28
F2165172.0
ssS'TILNEY ELIZABETH A'
p299
(dp300
g3
F0.02391304347826087
sg4
F460.0
sg5
F227449.0
sg6
F399393.0
sg7
F46547.5
sg8
F0.5263157894736842
sg9
I00
sg10
F1168042.0
sg11
F275000.0
sg12
F10.0
sg13
F-575000.0
sg14
F-153686.0
sg15
F379.0
sg16
F2000000.0
sg17
F19.0
sg18
F152055.0
sg19
F103750.0
sg20
F-1.552328299399974
sg21
F300000.0
sg22
F1168042.0
sg23
F-0.1930266524103991
sg24
F11.0
sg25
F576792.0
sg26
F247338.0
sg27
F399393.0
sg28
F591250.0
ssS'MARTIN AMANDA K'
p301
(dp302
g3
F0.0
sg4
F1522.0
sg5
F85430.0
sg6
F8407016.0
sg7
F8211.0
sg8
F0.034782608695652174
sg9
I00
sg10
F2070306.0
sg11
F5145434.0
sg12
F8.0
sg13
F-144062.0
sg14
F-153686.0
sg15
F477.0
sg16
F2000000.0
sg17
F230.0
sg18
F2818454.0
sg19
F103750.0
sg20
F-1.7789853364333728
sg21
F700000.0
sg22
F2070306.0
sg23
F-0.9802084933419314
sg24
F0.0
sg25
F451740.0
sg26
F349487.0
sg27
F8407016.0
sg28
F2070306.0
ssS'BUY RICHARD B'
p303
(dp304
g3
F0.02015327845586148
sg4
F3523.0
sg5
F649584.0
sg6
F2355702.0
sg7
F46547.5
sg8
F0.14814814814814814
sg9
I00
sg10
F3444470.0
sg11
F769862.0
sg12
F156.0
sg13
F-694862.0
sg14
F-153686.0
sg15
F2333.0
sg16
F2000000.0
sg17
F1053.0
sg18
F400572.0
sg19
F103750.0
sg20
F-2.3437794927957256
sg21
F900000.0
sg22
F3444470.0
sg23
F-1.001648930661657
sg24
F71.0
sg25
F901657.0
sg26
F330546.0
sg27
F2355702.0
sg28
F2542813.0
ssS'GRAMM WENDY L'
p305
(dp306
g3
F0.006362736718995996
sg4
F1211.0
sg5
F227449.0
sg6
F119292.0
sg7
F46547.5
sg8
F0.38461538461538464
sg9
I00
sg10
F1088014.0
sg11
F422158.0
sg12
F35.0
sg13
F-144062.0
sg14
F-153686.0
sg15
F740.5
sg16
F2000000.0
sg17
F41.0
sg18
F51587.0
sg19
F119292.0
sg20
F-1.788596780193325
sg21
F700000.0
sg22
F1102872.5
sg23
F-0.9802084933419314
sg24
F8.0
sg25
F451740.0
sg26
F248346.0
sg27
F119292.0
sg28
F1043324.5
ssS'CAUSEY RICHARD A'
p307
(dp308
g3
F0.006342494714587738
sg4
F1892.0
sg5
F227449.0
sg6
F1868758.0
sg7
F30674.0
sg8
F1.183673469387755
sg9
I01
sg10
F2502063.0
sg11
F350000.0
sg12
F58.0
sg13
F-235000.0
sg14
F-153686.0
sg15
F1585.0
sg16
F2000000.0
sg17
F49.0
sg18
F307895.0
sg19
F103750.0
sg20
F-1.7961370323215
sg21
F700000.0
sg22
F2502063.0
sg23
F-0.8790214407376727
sg24
F12.0
sg25
F2502063.0
sg26
F248346.0
sg27
F1868758.0
sg28
F1043324.5
ssS'TAYLOR MITCHELL S'
p309
(dp310
g3
F0.0
sg4
F533.0
sg5
F227449.0
sg6
F1092663.0
sg7
F46547.5
sg8
F0.0
sg9
I00
sg10
F3745048.0
sg11
F422158.0
sg12
F0.0
sg13
F-144062.0
sg14
F-153686.0
sg15
F300.0
sg16
F2000000.0
sg17
F29.0
sg18
F51587.0
sg19
F103750.0
sg20
F-2.6476526656933803
sg21
F600000.0
sg22
F3745048.0
sg23
F-0.8163926079508923
sg24
F0.0
sg25
F563798.0
sg26
F265214.0
sg27
F1092663.0
sg28
F3181250.0
ssS'DONAHUE JR JEFFREY M'
p311
(dp312
g3
F0.012716763005780347
sg4
F865.0
sg5
F227449.0
sg6
F875760.0
sg7
F96268.0
sg8
F8.545454545454545
sg9
I00
sg10
F1080988.0
sg11
F422158.0
sg12
F188.0
sg13
F-300000.0
sg14
F-153686.0
sg15
F772.0
sg16
F2000000.0
sg17
F22.0
sg18
F891.0
sg19
F103750.0
sg20
F-1.355850066030319
sg21
F800000.0
sg22
F1080988.0
sg23
F-1.054831076953215
sg24
F11.0
sg25
F315068.0
sg26
F278601.0
sg27
F875760.0
sg28
F765920.0
ssS'GLISAN JR BEN F'
p313
(dp314
g3
F0.006872852233676976
sg4
F873.0
sg5
F227449.0
sg6
F1272284.0
sg7
F125978.0
sg8
F3.25
sg9
I01
sg10
F778546.0
sg11
F71023.0
sg12
F52.0
sg13
F-144062.0
sg14
F-153686.0
sg15
F874.0
sg16
F2000000.0
sg17
F16.0
sg18
F200308.0
sg19
F103750.0
sg20
F-1.04074789307497
sg21
F600000.0
sg22
F778546.0
sg23
F-0.780249470772966
sg24
F6.0
sg25
F393818.0
sg26
F274975.0
sg27
F1272284.0
sg28
F384728.0
ss.